
bootloader.exe:     file format elf32-littlearm

Disassembly of section .text:

00000000 <_startup>:
       0:	ea000cde 	b	3380 <INTR_HandleErrorTrap+0x2c>
       4:	e59ff018 	ldr	pc, [pc, #24]	; 24 <_starttext+0x24>
       8:	e59ff018 	ldr	pc, [pc, #24]	; 28 <_starttext+0x28>
       c:	e59ff018 	ldr	pc, [pc, #24]	; 2c <_starttext+0x2c>
      10:	e59ff018 	ldr	pc, [pc, #24]	; 30 <_starttext+0x30>
      14:	e59ff018 	ldr	pc, [pc, #24]	; 34 <_starttext+0x34>
      18:	e59ff018 	ldr	pc, [pc, #24]	; 38 <_starttext+0x38>
      1c:	e59ff018 	ldr	pc, [pc, #24]	; 3c <_starttext+0x3c>
      20:	e59ff018 	ldr	pc, [pc, #24]	; 40 <_starttext+0x40>
      24:	000034e8 	andeq	r3, r0, r8, ror #9
      28:	000034f8 	streqd	r3, [r0], -r8
      2c:	00003508 	andeq	r3, r0, r8, lsl #10
      30:	00003518 	andeq	r3, r0, r8, lsl r5
      34:	00003528 	andeq	r3, r0, r8, lsr #10
      38:	00003538 	andeq	r3, r0, r8, lsr r5
      3c:	0000355c 	andeq	r3, r0, ip, asr r5
      40:	0000341c 	andeq	r3, r0, ip, lsl r4

00000044 <Delay>:
      44:	e1a0c00d 	mov	ip, sp
      48:	e3500000 	cmp	r0, #0	; 0x0
      4c:	e92dd800 	stmdb	sp!, {fp, ip, lr, pc}
      50:	e3a02000 	mov	r2, #0	; 0x0
      54:	e24cb004 	sub	fp, ip, #4	; 0x4
      58:	0a000019 	beq	c4 <Delay+0x80>
      5c:	ea000008 	b	84 <Delay+0x40>
      60:	e59f3098 	ldr	r3, [pc, #152]	; 100 <Delay+0xbc>
      64:	e3a01000 	mov	r1, #0	; 0x0
      68:	ea000001 	b	74 <Delay+0x30>
      6c:	e59f308c 	ldr	r3, [pc, #140]	; 100 <Delay+0xbc>
      70:	e2811001 	add	r1, r1, #1	; 0x1
      74:	e5933000 	ldr	r3, [r3]
      78:	e1510003 	cmp	r1, r3
      7c:	bafffffa 	blt	6c <Delay+0x28>
      80:	e2400001 	sub	r0, r0, #1	; 0x1
      84:	e3500000 	cmp	r0, #0	; 0x0
      88:	cafffff4 	bgt	60 <Delay+0x1c>
      8c:	e3520001 	cmp	r2, #1	; 0x1
      90:	191ba800 	ldmnedb	fp, {fp, sp, pc}
      94:	e59f2068 	ldr	r2, [pc, #104]	; 104 <Delay+0xc0>
      98:	e3a03453 	mov	r3, #1392508928	; 0x53000000
      9c:	e4832008 	str	r2, [r3], #8
      a0:	e5933000 	ldr	r3, [r3]
      a4:	e59f005c 	ldr	r0, [pc, #92]	; 108 <Delay+0xc4>
      a8:	e2631cff 	rsb	r1, r3, #65280	; 0xff00
      ac:	e28110ff 	add	r1, r1, #255	; 0xff
      b0:	e1a01301 	mov	r1, r1, lsl #6
      b4:	eb0011e5 	bl	4850 <__divsi3>
      b8:	e59f3040 	ldr	r3, [pc, #64]	; 100 <Delay+0xbc>
      bc:	e5830000 	str	r0, [r3]
      c0:	e91ba800 	ldmdb	fp, {fp, sp, pc}
      c4:	e59f3034 	ldr	r3, [pc, #52]	; 100 <Delay+0xbc>
      c8:	e2822e19 	add	r2, r2, #400	; 0x190
      cc:	e5832000 	str	r2, [r3]
      d0:	e59f302c 	ldr	r3, [pc, #44]	; 104 <Delay+0xc0>
      d4:	e3a00453 	mov	r0, #1392508928	; 0x53000000
      d8:	e5803000 	str	r3, [r0]
      dc:	e59f1028 	ldr	r1, [pc, #40]	; 10c <Delay+0xc8>
      e0:	e59f3028 	ldr	r3, [pc, #40]	; 110 <Delay+0xcc>
      e4:	e3a02001 	mov	r2, #1	; 0x1
      e8:	e4831004 	str	r1, [r3], #4
      ec:	e5831000 	str	r1, [r3]
      f0:	e59f301c 	ldr	r3, [pc, #28]	; 114 <Delay+0xd0>
      f4:	e5803000 	str	r3, [r0]
      f8:	e3a000c8 	mov	r0, #200	; 0xc8
      fc:	eaffffe0 	b	84 <Delay+0x40>
     100:	32000000 	andcc	r0, r0, #0	; 0x0
     104:	00002c10 	andeq	r2, r0, r0, lsl ip
     108:	007a1200 	rsbeqs	r1, sl, r0, lsl #4
     10c:	0000ffff 	streqd	pc, [r0], -pc
     110:	53000004 	tstpl	r0, #4	; 0x4
     114:	00002c30 	andeq	r2, r0, r0, lsr ip

00000118 <Port_Init>:
     118:	e59f2090 	ldr	r2, [pc, #144]	; 1b0 <Port_Init+0x98>
     11c:	e3a03456 	mov	r3, #1442840576	; 0x56000000
     120:	e52de004 	str	lr, [sp, -#4]!
     124:	e5832000 	str	r2, [r3]
     128:	e59f2084 	ldr	r2, [pc, #132]	; 1b4 <Port_Init+0x9c>
     12c:	e59fe084 	ldr	lr, [pc, #132]	; 1b8 <Port_Init+0xa0>
     130:	e2833010 	add	r3, r3, #16	; 0x10
     134:	e5832000 	str	r2, [r3]
     138:	e59f107c 	ldr	r1, [pc, #124]	; 1bc <Port_Init+0xa4>
     13c:	e2833008 	add	r3, r3, #8	; 0x8
     140:	e583e000 	str	lr, [r3]
     144:	e59f0074 	ldr	r0, [pc, #116]	; 1c0 <Port_Init+0xa8>
     148:	e2833008 	add	r3, r3, #8	; 0x8
     14c:	e4831008 	str	r1, [r3], #8
     150:	e4830008 	str	r0, [r3], #8
     154:	e4831008 	str	r1, [r3], #8
     158:	e4830008 	str	r0, [r3], #8
     15c:	e5831000 	str	r1, [r3]
     160:	e59f205c 	ldr	r2, [pc, #92]	; 1c4 <Port_Init+0xac>
     164:	e2833008 	add	r3, r3, #8	; 0x8
     168:	e4830008 	str	r0, [r3], #8
     16c:	e5832000 	str	r2, [r3]
     170:	e3a020ff 	mov	r2, #255	; 0xff
     174:	e2833008 	add	r3, r3, #8	; 0x8
     178:	e5832000 	str	r2, [r3]
     17c:	e59f2044 	ldr	r2, [pc, #68]	; 1c8 <Port_Init+0xb0>
     180:	e2833008 	add	r3, r3, #8	; 0x8
     184:	e4832008 	str	r2, [r3], #8
     188:	e59f203c 	ldr	r2, [pc, #60]	; 1cc <Port_Init+0xb4>
     18c:	e4830008 	str	r0, [r3], #8
     190:	e5832000 	str	r2, [r3]
     194:	e59fc034 	ldr	ip, [pc, #52]	; 1d0 <Port_Init+0xb8>
     198:	e2833008 	add	r3, r3, #8	; 0x8
     19c:	e483e010 	str	lr, [r3], #16
     1a0:	e483c004 	str	ip, [r3], #4
     1a4:	e483c004 	str	ip, [r3], #4
     1a8:	e583c000 	str	ip, [r3]
     1ac:	e49df004 	ldr	pc, [sp], #4
     1b0:	007fffff 	ldreqsh	pc, [pc, #-255]	; b9 <Delay+0x75>
     1b4:	00044555 	andeq	r4, r4, r5, asr r5
     1b8:	000007ff 	streqd	r0, [r0], -pc
     1bc:	aaaaaaaa 	bge	feaaac6c <__bss_end__+0xccaa9b10>
     1c0:	0000ffff 	streqd	pc, [r0], -pc
     1c4:	000055aa 	andeq	r5, r0, sl, lsr #11
     1c8:	ff95ffba 	swinv	0x0095ffba
     1cc:	002afaaa 	eoreq	pc, sl, sl, lsr #21
     1d0:	22222222 	eorcs	r2, r2, #536870914	; 0x20000002

000001d4 <Uart_Init>:
     1d4:	e1a0c00d 	mov	ip, sp
     1d8:	e92dd8f0 	stmdb	sp!, {r4, r5, r6, r7, fp, ip, lr, pc}
     1dc:	e59f30b8 	ldr	r3, [pc, #184]	; 29c <Uart_Init+0xc8>
     1e0:	e1a04000 	mov	r4, r0
     1e4:	e3540000 	cmp	r4, #0	; 0x0
     1e8:	e3a02000 	mov	r2, #0	; 0x0
     1ec:	01a04003 	moveq	r4, r3
     1f0:	e3a03285 	mov	r3, #1342177288	; 0x50000008
     1f4:	e5832000 	str	r2, [r3]
     1f8:	e2833901 	add	r3, r3, #16384	; 0x4000
     1fc:	e5832000 	str	r2, [r3]
     200:	e2833901 	add	r3, r3, #16384	; 0x4000
     204:	e5832000 	str	r2, [r3]
     208:	e3a032c5 	mov	r3, #1342177292	; 0x5000000c
     20c:	e5832000 	str	r2, [r3]
     210:	e2833901 	add	r3, r3, #16384	; 0x4000
     214:	e5832000 	str	r2, [r3]
     218:	e59f6080 	ldr	r6, [pc, #128]	; 2a0 <Uart_Init+0xcc>
     21c:	e3a05003 	mov	r5, #3	; 0x3
     220:	e3a03205 	mov	r3, #1342177280	; 0x50000000
     224:	e1a07201 	mov	r7, r1, lsl #4
     228:	e5835000 	str	r5, [r3]
     22c:	e0841181 	add	r1, r4, r1, lsl #3
     230:	e2833004 	add	r3, r3, #4	; 0x4
     234:	e1a00001 	mov	r0, r1
     238:	e5836000 	str	r6, [r3]
     23c:	e1a01007 	mov	r1, r7
     240:	e24cb004 	sub	fp, ip, #4	; 0x4
     244:	eb001181 	bl	4850 <__divsi3>
     248:	e59f3054 	ldr	r3, [pc, #84]	; 2a4 <Uart_Init+0xd0>
     24c:	e1a02000 	mov	r2, r0
     250:	e2422001 	sub	r2, r2, #1	; 0x1
     254:	e5832000 	str	r2, [r3]
     258:	e59f3048 	ldr	r3, [pc, #72]	; 2a8 <Uart_Init+0xd4>
     25c:	e1a00004 	mov	r0, r4
     260:	e4835004 	str	r5, [r3], #4
     264:	e5836000 	str	r6, [r3]
     268:	e1a01007 	mov	r1, r7
     26c:	eb001177 	bl	4850 <__divsi3>
     270:	e59f3034 	ldr	r3, [pc, #52]	; 2ac <Uart_Init+0xd8>
     274:	e2400001 	sub	r0, r0, #1	; 0x1
     278:	e5830000 	str	r0, [r3]
     27c:	e59f302c 	ldr	r3, [pc, #44]	; 2b0 <Uart_Init+0xdc>
     280:	e4835004 	str	r5, [r3], #4
     284:	e4836024 	str	r6, [r3], #36
     288:	e5830000 	str	r0, [r3]
     28c:	e3a03063 	mov	r3, #99	; 0x63
     290:	e2533001 	subs	r3, r3, #1	; 0x1
     294:	5afffffd 	bpl	290 <Uart_Init+0xbc>
     298:	e91ba8f0 	ldmdb	fp, {r4, r5, r6, r7, fp, sp, pc}
     29c:	02aea540 	adceq	sl, lr, #268435456	; 0x10000000
     2a0:	00000245 	andeq	r0, r0, r5, asr #4
     2a4:	50000028 	andpl	r0, r0, r8, lsr #32
     2a8:	50004000 	andpl	r4, r0, r0
     2ac:	50004028 	andpl	r4, r0, r8, lsr #32
     2b0:	50008000 	andpl	r8, r0, r0

000002b4 <Uart_Select>:
     2b4:	e59f3004 	ldr	r3, [pc, #4]	; 2c0 <Uart_Select+0xc>
     2b8:	e5830000 	str	r0, [r3]
     2bc:	e1a0f00e 	mov	pc, lr
     2c0:	32000004 	andcc	r0, r0, #4	; 0x4

000002c4 <Uart_TxEmpty>:
     2c4:	e3500000 	cmp	r0, #0	; 0x0
     2c8:	0a00000d 	beq	304 <Uart_TxEmpty+0x40>
     2cc:	e3500001 	cmp	r0, #1	; 0x1
     2d0:	0a000006 	beq	2f0 <Uart_TxEmpty+0x2c>
     2d4:	e3500002 	cmp	r0, #2	; 0x2
     2d8:	11a0f00e 	movne	pc, lr
     2dc:	e59f3034 	ldr	r3, [pc, #52]	; 318 <Uart_TxEmpty+0x54>
     2e0:	e5933000 	ldr	r3, [r3]
     2e4:	e3130004 	tst	r3, #4	; 0x4
     2e8:	0afffffb 	beq	2dc <Uart_TxEmpty+0x18>
     2ec:	e1a0f00e 	mov	pc, lr
     2f0:	e59f3024 	ldr	r3, [pc, #36]	; 31c <Uart_TxEmpty+0x58>
     2f4:	e5933000 	ldr	r3, [r3]
     2f8:	e3130004 	tst	r3, #4	; 0x4
     2fc:	0afffffb 	beq	2f0 <Uart_TxEmpty+0x2c>
     300:	e1a0f00e 	mov	pc, lr
     304:	e59f3014 	ldr	r3, [pc, #20]	; 320 <Uart_TxEmpty+0x5c>
     308:	e5933000 	ldr	r3, [r3]
     30c:	e3130004 	tst	r3, #4	; 0x4
     310:	0afffffb 	beq	304 <Uart_TxEmpty+0x40>
     314:	e1a0f00e 	mov	pc, lr
     318:	50008010 	andpl	r8, r0, r0, lsl r0
     31c:	50004010 	andpl	r4, r0, r0, lsl r0
     320:	50000010 	andpl	r0, r0, r0, lsl r0

00000324 <Uart_Getch>:
     324:	e59f306c 	ldr	r3, [pc, #108]	; 398 <Uart_Getch+0x74>
     328:	e5933000 	ldr	r3, [r3]
     32c:	e3530000 	cmp	r3, #0	; 0x0
     330:	0a000010 	beq	378 <Uart_Getch+0x54>
     334:	e3530001 	cmp	r3, #1	; 0x1
     338:	0a000008 	beq	360 <Uart_Getch+0x3c>
     33c:	e3530002 	cmp	r3, #2	; 0x2
     340:	0a000000 	beq	348 <Uart_Getch+0x24>
     344:	e1a0f00e 	mov	pc, lr
     348:	e59f304c 	ldr	r3, [pc, #76]	; 39c <Uart_Getch+0x78>
     34c:	e5933000 	ldr	r3, [r3]
     350:	e3130001 	tst	r3, #1	; 0x1
     354:	0afffffb 	beq	348 <Uart_Getch+0x24>
     358:	e59f3040 	ldr	r3, [pc, #64]	; 3a0 <Uart_Getch+0x7c>
     35c:	ea00000a 	b	38c <Uart_Getch+0x68>
     360:	e59f303c 	ldr	r3, [pc, #60]	; 3a4 <Uart_Getch+0x80>
     364:	e5933000 	ldr	r3, [r3]
     368:	e3130001 	tst	r3, #1	; 0x1
     36c:	0afffffb 	beq	360 <Uart_Getch+0x3c>
     370:	e59f3030 	ldr	r3, [pc, #48]	; 3a8 <Uart_Getch+0x84>
     374:	ea000004 	b	38c <Uart_Getch+0x68>
     378:	e59f302c 	ldr	r3, [pc, #44]	; 3ac <Uart_Getch+0x88>
     37c:	e5933000 	ldr	r3, [r3]
     380:	e3130001 	tst	r3, #1	; 0x1
     384:	0afffffb 	beq	378 <Uart_Getch+0x54>
     388:	e59f3020 	ldr	r3, [pc, #32]	; 3b0 <Uart_Getch+0x8c>
     38c:	e5d30000 	ldrb	r0, [r3]
     390:	e20000ff 	and	r0, r0, #255	; 0xff
     394:	e1a0f00e 	mov	pc, lr
     398:	32000004 	andcc	r0, r0, #4	; 0x4
     39c:	50008010 	andpl	r8, r0, r0, lsl r0
     3a0:	50008024 	andpl	r8, r0, r4, lsr #32
     3a4:	50004010 	andpl	r4, r0, r0, lsl r0
     3a8:	50004024 	andpl	r4, r0, r4, lsr #32
     3ac:	50000010 	andpl	r0, r0, r0, lsl r0
     3b0:	50000024 	andpl	r0, r0, r4, lsr #32

000003b4 <Uart_GetKey>:
     3b4:	e59f306c 	ldr	r3, [pc, #108]	; 428 <Uart_GetKey+0x74>
     3b8:	e5930000 	ldr	r0, [r3]
     3bc:	e3500000 	cmp	r0, #0	; 0x0
     3c0:	0a000010 	beq	408 <Uart_GetKey+0x54>
     3c4:	e3500001 	cmp	r0, #1	; 0x1
     3c8:	0a000008 	beq	3f0 <Uart_GetKey+0x3c>
     3cc:	e3500002 	cmp	r0, #2	; 0x2
     3d0:	0a000000 	beq	3d8 <Uart_GetKey+0x24>
     3d4:	e1a0f00e 	mov	pc, lr
     3d8:	e59f304c 	ldr	r3, [pc, #76]	; 42c <Uart_GetKey+0x78>
     3dc:	e5933000 	ldr	r3, [r3]
     3e0:	e2130001 	ands	r0, r3, #1	; 0x1
     3e4:	01a0f00e 	moveq	pc, lr
     3e8:	e59f3040 	ldr	r3, [pc, #64]	; 430 <Uart_GetKey+0x7c>
     3ec:	ea00000a 	b	41c <Uart_GetKey+0x68>
     3f0:	e59f303c 	ldr	r3, [pc, #60]	; 434 <Uart_GetKey+0x80>
     3f4:	e5933000 	ldr	r3, [r3]
     3f8:	e2130001 	ands	r0, r3, #1	; 0x1
     3fc:	01a0f00e 	moveq	pc, lr
     400:	e59f3030 	ldr	r3, [pc, #48]	; 438 <Uart_GetKey+0x84>
     404:	ea000004 	b	41c <Uart_GetKey+0x68>
     408:	e59f302c 	ldr	r3, [pc, #44]	; 43c <Uart_GetKey+0x88>
     40c:	e5933000 	ldr	r3, [r3]
     410:	e3130001 	tst	r3, #1	; 0x1
     414:	01a0f00e 	moveq	pc, lr
     418:	e59f3020 	ldr	r3, [pc, #32]	; 440 <Uart_GetKey+0x8c>
     41c:	e5d30000 	ldrb	r0, [r3]
     420:	e20000ff 	and	r0, r0, #255	; 0xff
     424:	e1a0f00e 	mov	pc, lr
     428:	32000004 	andcc	r0, r0, #4	; 0x4
     42c:	50008010 	andpl	r8, r0, r0, lsl r0
     430:	50008024 	andpl	r8, r0, r4, lsr #32
     434:	50004010 	andpl	r4, r0, r0, lsl r0
     438:	50004024 	andpl	r4, r0, r4, lsr #32
     43c:	50000010 	andpl	r0, r0, r0, lsl r0
     440:	50000024 	andpl	r0, r0, r4, lsr #32

00000444 <Uart_GetString>:
     444:	e1a0c00d 	mov	ip, sp
     448:	e92dd830 	stmdb	sp!, {r4, r5, fp, ip, lr, pc}
     44c:	e1a04000 	mov	r4, r0
     450:	e24cb004 	sub	fp, ip, #4	; 0x4
     454:	e1a05004 	mov	r5, r4
     458:	ebffffb1 	bl	324 <Uart_Getch>
     45c:	e20030ff 	and	r3, r0, #255	; 0xff
     460:	e353000d 	cmp	r3, #13	; 0xd
     464:	e1a00003 	mov	r0, r3
     468:	0a00000a 	beq	498 <Uart_GetString+0x54>
     46c:	e3530008 	cmp	r3, #8	; 0x8
     470:	0a000002 	beq	480 <Uart_GetString+0x3c>
     474:	e4c43001 	strb	r3, [r4], #1
     478:	eb000051 	bl	5c4 <Uart_SendByte>
     47c:	eafffff5 	b	458 <Uart_GetString+0x14>
     480:	e1550004 	cmp	r5, r4
     484:	e59f0020 	ldr	r0, [pc, #32]	; 4ac <Uart_GetString+0x68>
     488:	aafffff2 	bge	458 <Uart_GetString+0x14>
     48c:	eb0000ab 	bl	740 <Uart_Printf>
     490:	e2444001 	sub	r4, r4, #1	; 0x1
     494:	eaffffef 	b	458 <Uart_GetString+0x14>
     498:	e3a03000 	mov	r3, #0	; 0x0
     49c:	e3a0000a 	mov	r0, #10	; 0xa
     4a0:	e5c43000 	strb	r3, [r4]
     4a4:	e91b6830 	ldmdb	fp, {r4, r5, fp, sp, lr}
     4a8:	ea000045 	b	5c4 <Uart_SendByte>
     4ac:	000049c4 	andeq	r4, r0, r4, asr #19

000004b0 <Uart_GetIntNum>:
     4b0:	e1a0c00d 	mov	ip, sp
     4b4:	e92dd9f0 	stmdb	sp!, {r4, r5, r6, r7, r8, fp, ip, lr, pc}
     4b8:	e24cb004 	sub	fp, ip, #4	; 0x4
     4bc:	e24b4040 	sub	r4, fp, #64	; 0x40
     4c0:	e24dd020 	sub	sp, sp, #32	; 0x20
     4c4:	e1a00004 	mov	r0, r4
     4c8:	ebffffdd 	bl	444 <Uart_GetString>
     4cc:	e55b3040 	ldrb	r3, [fp, -#64]
     4d0:	e3a07000 	mov	r7, #0	; 0x0
     4d4:	e353002d 	cmp	r3, #45	; 0x2d
     4d8:	024b403f 	subeq	r4, fp, #63	; 0x3f
     4dc:	e5d43000 	ldrb	r3, [r4]
     4e0:	e1a08007 	mov	r8, r7
     4e4:	02888001 	addeq	r8, r8, #1	; 0x1
     4e8:	e3530030 	cmp	r3, #48	; 0x30
     4ec:	e3a0500a 	mov	r5, #10	; 0xa
     4f0:	0a00002d 	beq	5ac <Uart_GetIntNum+0xfc>
     4f4:	e1a00004 	mov	r0, r4
     4f8:	eb0001eb 	bl	cac <str_len>
     4fc:	e2506001 	subs	r6, r0, #1	; 0x1
     500:	43e00000 	mvnmi	r0, #0	; 0x0
     504:	491ba9f0 	ldmmidb	fp, {r4, r5, r6, r7, r8, fp, sp, pc}
     508:	e7d43006 	ldrb	r3, [r4, r6]
     50c:	e3530048 	cmp	r3, #72	; 0x48
     510:	13530068 	cmpne	r3, #104	; 0x68
     514:	03a03000 	moveq	r3, #0	; 0x0
     518:	03a05010 	moveq	r5, #16	; 0x10
     51c:	07c43006 	streqb	r3, [r4, r6]
     520:	02466001 	subeq	r6, r6, #1	; 0x1
     524:	e355000a 	cmp	r5, #10	; 0xa
     528:	0a000019 	beq	594 <Uart_GetIntNum+0xe4>
     52c:	e3a05000 	mov	r5, #0	; 0x0
     530:	e1550006 	cmp	r5, r6
     534:	ca000012 	bgt	584 <Uart_GetIntNum+0xd4>
     538:	e7d40005 	ldrb	r0, [r4, r5]
     53c:	eb00103c 	bl	4634 <std_isalpha>
     540:	e3500000 	cmp	r0, #0	; 0x0
     544:	07d43005 	ldreqb	r3, [r4, r5]
     548:	00833207 	addeq	r3, r3, r7, lsl #4
     54c:	02437030 	subeq	r7, r3, #48	; 0x30
     550:	0a000008 	beq	578 <Uart_GetIntNum+0xc8>
     554:	e7d40005 	ldrb	r0, [r4, r5]
     558:	eb00103c 	bl	4650 <std_isupper>
     55c:	e3500000 	cmp	r0, #0	; 0x0
     560:	17d43005 	ldrneb	r3, [r4, r5]
     564:	07d43005 	ldreqb	r3, [r4, r5]
     568:	10833207 	addne	r3, r3, r7, lsl #4
     56c:	00833207 	addeq	r3, r3, r7, lsl #4
     570:	12437037 	subne	r7, r3, #55	; 0x37
     574:	02437057 	subeq	r7, r3, #87	; 0x57
     578:	e2855001 	add	r5, r5, #1	; 0x1
     57c:	e1550006 	cmp	r5, r6
     580:	daffffec 	ble	538 <Uart_GetIntNum+0x88>
     584:	e3580000 	cmp	r8, #0	; 0x0
     588:	12677000 	rsbne	r7, r7, #0	; 0x0
     58c:	e1a00007 	mov	r0, r7
     590:	e91ba9f0 	ldmdb	fp, {r4, r5, r6, r7, r8, fp, sp, pc}
     594:	e1a00004 	mov	r0, r4
     598:	eb000f58 	bl	4300 <std_atoi>
     59c:	e3580000 	cmp	r8, #0	; 0x0
     5a0:	e1a07000 	mov	r7, r0
     5a4:	12677000 	rsbne	r7, r7, #0	; 0x0
     5a8:	eafffff7 	b	58c <Uart_GetIntNum+0xdc>
     5ac:	e5d43001 	ldrb	r3, [r4, #1]
     5b0:	e3530058 	cmp	r3, #88	; 0x58
     5b4:	13530078 	cmpne	r3, #120	; 0x78
     5b8:	03a05010 	moveq	r5, #16	; 0x10
     5bc:	02844002 	addeq	r4, r4, #2	; 0x2
     5c0:	eaffffcb 	b	4f4 <Uart_GetIntNum+0x44>

000005c4 <Uart_SendByte>:
     5c4:	e1a0c00d 	mov	ip, sp
     5c8:	e92dd810 	stmdb	sp!, {r4, fp, ip, lr, pc}
     5cc:	e59f311c 	ldr	r3, [pc, #284]	; 6f0 <Uart_SendByte+0x12c>
     5d0:	e24cb004 	sub	fp, ip, #4	; 0x4
     5d4:	e5933000 	ldr	r3, [r3]
     5d8:	e1a04000 	mov	r4, r0
     5dc:	e3530000 	cmp	r3, #0	; 0x0
     5e0:	0a00002d 	beq	69c <Uart_SendByte+0xd8>
     5e4:	e3530001 	cmp	r3, #1	; 0x1
     5e8:	0a000016 	beq	648 <Uart_SendByte+0x84>
     5ec:	e3530002 	cmp	r3, #2	; 0x2
     5f0:	191ba810 	ldmnedb	fp, {r4, fp, sp, pc}
     5f4:	e354000a 	cmp	r4, #10	; 0xa
     5f8:	0a000008 	beq	620 <Uart_SendByte+0x5c>
     5fc:	e59f30f0 	ldr	r3, [pc, #240]	; 6f4 <Uart_SendByte+0x130>
     600:	e5933000 	ldr	r3, [r3]
     604:	e3130002 	tst	r3, #2	; 0x2
     608:	0afffffb 	beq	5fc <Uart_SendByte+0x38>
     60c:	e3a0000a 	mov	r0, #10	; 0xa
     610:	ebfffe8b 	bl	44 <Delay>
     614:	e59f30dc 	ldr	r3, [pc, #220]	; 6f8 <Uart_SendByte+0x134>
     618:	e5c34000 	strb	r4, [r3]
     61c:	e91ba810 	ldmdb	fp, {r4, fp, sp, pc}
     620:	e59f30cc 	ldr	r3, [pc, #204]	; 6f4 <Uart_SendByte+0x130>
     624:	e5933000 	ldr	r3, [r3]
     628:	e3130002 	tst	r3, #2	; 0x2
     62c:	0afffffb 	beq	620 <Uart_SendByte+0x5c>
     630:	e3a0000a 	mov	r0, #10	; 0xa
     634:	ebfffe82 	bl	44 <Delay>
     638:	e59f30b8 	ldr	r3, [pc, #184]	; 6f8 <Uart_SendByte+0x134>
     63c:	e3a0200d 	mov	r2, #13	; 0xd
     640:	e5c32000 	strb	r2, [r3]
     644:	eaffffec 	b	5fc <Uart_SendByte+0x38>
     648:	e354000a 	cmp	r4, #10	; 0xa
     64c:	0a000008 	beq	674 <Uart_SendByte+0xb0>
     650:	e59f30a4 	ldr	r3, [pc, #164]	; 6fc <Uart_SendByte+0x138>
     654:	e5933000 	ldr	r3, [r3]
     658:	e3130002 	tst	r3, #2	; 0x2
     65c:	0afffffb 	beq	650 <Uart_SendByte+0x8c>
     660:	e3a0000a 	mov	r0, #10	; 0xa
     664:	ebfffe76 	bl	44 <Delay>
     668:	e59f3090 	ldr	r3, [pc, #144]	; 700 <Uart_SendByte+0x13c>
     66c:	e5c34000 	strb	r4, [r3]
     670:	e91ba810 	ldmdb	fp, {r4, fp, sp, pc}
     674:	e59f3080 	ldr	r3, [pc, #128]	; 6fc <Uart_SendByte+0x138>
     678:	e5933000 	ldr	r3, [r3]
     67c:	e3130002 	tst	r3, #2	; 0x2
     680:	0afffffb 	beq	674 <Uart_SendByte+0xb0>
     684:	e3a0000a 	mov	r0, #10	; 0xa
     688:	ebfffe6d 	bl	44 <Delay>
     68c:	e59f306c 	ldr	r3, [pc, #108]	; 700 <Uart_SendByte+0x13c>
     690:	e3a0200d 	mov	r2, #13	; 0xd
     694:	e5c32000 	strb	r2, [r3]
     698:	eaffffec 	b	650 <Uart_SendByte+0x8c>
     69c:	e354000a 	cmp	r4, #10	; 0xa
     6a0:	0a000008 	beq	6c8 <Uart_SendByte+0x104>
     6a4:	e59f3058 	ldr	r3, [pc, #88]	; 704 <Uart_SendByte+0x140>
     6a8:	e5933000 	ldr	r3, [r3]
     6ac:	e3130002 	tst	r3, #2	; 0x2
     6b0:	0afffffb 	beq	6a4 <Uart_SendByte+0xe0>
     6b4:	e3a0000a 	mov	r0, #10	; 0xa
     6b8:	ebfffe61 	bl	44 <Delay>
     6bc:	e59f3044 	ldr	r3, [pc, #68]	; 708 <Uart_SendByte+0x144>
     6c0:	e5c34000 	strb	r4, [r3]
     6c4:	e91ba810 	ldmdb	fp, {r4, fp, sp, pc}
     6c8:	e59f3034 	ldr	r3, [pc, #52]	; 704 <Uart_SendByte+0x140>
     6cc:	e5933000 	ldr	r3, [r3]
     6d0:	e3130002 	tst	r3, #2	; 0x2
     6d4:	0afffffb 	beq	6c8 <Uart_SendByte+0x104>
     6d8:	e3a0000a 	mov	r0, #10	; 0xa
     6dc:	ebfffe58 	bl	44 <Delay>
     6e0:	e59f3020 	ldr	r3, [pc, #32]	; 708 <Uart_SendByte+0x144>
     6e4:	e3a0200d 	mov	r2, #13	; 0xd
     6e8:	e5c32000 	strb	r2, [r3]
     6ec:	eaffffec 	b	6a4 <Uart_SendByte+0xe0>
     6f0:	32000004 	andcc	r0, r0, #4	; 0x4
     6f4:	50008010 	andpl	r8, r0, r0, lsl r0
     6f8:	50008020 	andpl	r8, r0, r0, lsr #32
     6fc:	50004010 	andpl	r4, r0, r0, lsl r0
     700:	50004020 	andpl	r4, r0, r0, lsr #32
     704:	50000010 	andpl	r0, r0, r0, lsl r0
     708:	50000020 	andpl	r0, r0, r0, lsr #32

0000070c <Uart_SendString>:
     70c:	e1a0c00d 	mov	ip, sp
     710:	e92dd810 	stmdb	sp!, {r4, fp, ip, lr, pc}
     714:	e1a04000 	mov	r4, r0
     718:	e5d43000 	ldrb	r3, [r4]
     71c:	e24cb004 	sub	fp, ip, #4	; 0x4
     720:	e3530000 	cmp	r3, #0	; 0x0
     724:	091ba810 	ldmeqdb	fp, {r4, fp, sp, pc}
     728:	e5d40000 	ldrb	r0, [r4]
     72c:	ebffffa4 	bl	5c4 <Uart_SendByte>
     730:	e5f43001 	ldrb	r3, [r4, #1]!
     734:	e3530000 	cmp	r3, #0	; 0x0
     738:	1afffffa 	bne	728 <Uart_SendString+0x1c>
     73c:	e91ba810 	ldmdb	fp, {r4, fp, sp, pc}

00000740 <Uart_Printf>:
     740:	e1a0c00d 	mov	ip, sp
     744:	e92d000f 	stmdb	sp!, {r0, r1, r2, r3}
     748:	e92dd810 	stmdb	sp!, {r4, fp, ip, lr, pc}
     74c:	e24cb014 	sub	fp, ip, #20	; 0x14
     750:	e24ddc01 	sub	sp, sp, #256	; 0x100
     754:	e59b1004 	ldr	r1, [fp, #4]
     758:	e1a0200b 	mov	r2, fp
     75c:	e24b4e11 	sub	r4, fp, #272	; 0x110
     760:	e5a21004 	str	r1, [r2, #4]!
     764:	e2822004 	add	r2, r2, #4	; 0x4
     768:	e1a00004 	mov	r0, r4
     76c:	eb000e45 	bl	4088 <std_vsprintf>
     770:	e1a00004 	mov	r0, r4
     774:	ebffffe4 	bl	70c <Uart_SendString>
     778:	e91ba810 	ldmdb	fp, {r4, fp, sp, pc}

0000077c <Led_Display>:
     77c:	e59f3018 	ldr	r3, [pc, #24]	; 79c <Led_Display+0x20>
     780:	e1e00000 	mvn	r0, r0
     784:	e5932000 	ldr	r2, [r3]
     788:	e200000f 	and	r0, r0, #15	; 0xf
     78c:	e3c220f0 	bic	r2, r2, #240	; 0xf0
     790:	e1822200 	orr	r2, r2, r0, lsl #4
     794:	e5832000 	str	r2, [r3]
     798:	e1a0f00e 	mov	pc, lr
     79c:	56000054 	undefined

000007a0 <Timer_Start>:
     7a0:	e59f1024 	ldr	r1, [pc, #36]	; 7cc <Timer_Start+0x2c>
     7a4:	e59f3024 	ldr	r3, [pc, #36]	; 7d0 <Timer_Start+0x30>
     7a8:	e1a00180 	mov	r0, r0, lsl #3
     7ac:	e3a02453 	mov	r2, #1392508928	; 0x53000000
     7b0:	e3800b0b 	orr	r0, r0, #11264	; 0x2c00
     7b4:	e5820000 	str	r0, [r2]
     7b8:	e4831004 	str	r1, [r3], #4
     7bc:	e5831000 	str	r1, [r3]
     7c0:	e5923000 	ldr	r3, [r2]
     7c4:	e5823000 	str	r3, [r2]
     7c8:	e1a0f00e 	mov	pc, lr
     7cc:	0000ffff 	streqd	pc, [r0], -pc
     7d0:	53000004 	tstpl	r0, #4	; 0x4

000007d4 <Timer_Stop>:
     7d4:	e3a02b0b 	mov	r2, #11264	; 0x2c00
     7d8:	e3a03453 	mov	r3, #1392508928	; 0x53000000
     7dc:	e4832008 	str	r2, [r3], #8
     7e0:	e5930000 	ldr	r0, [r3]
     7e4:	e2600cff 	rsb	r0, r0, #65280	; 0xff00
     7e8:	e28000ff 	add	r0, r0, #255	; 0xff
     7ec:	e1a0f00e 	mov	pc, lr

000007f0 <ChangeMPllValue>:
     7f0:	e1a01201 	mov	r1, r1, lsl #4
     7f4:	e1811600 	orr	r1, r1, r0, lsl #12
     7f8:	e59f3008 	ldr	r3, [pc, #8]	; 808 <ChangeMPllValue+0x18>
     7fc:	e1811002 	orr	r1, r1, r2
     800:	e5831000 	str	r1, [r3]
     804:	e1a0f00e 	mov	pc, lr
     808:	4c000004 	stcmi	0, cr0, [r0], -#16

0000080c <ChangeClockDivider>:
     80c:	e59f3020 	ldr	r3, [pc, #32]	; 834 <ChangeClockDivider+0x28>
     810:	e1811080 	orr	r1, r1, r0, lsl #1
     814:	e3500000 	cmp	r0, #0	; 0x0
     818:	e52de004 	str	lr, [sp, -#4]!
     81c:	e5831000 	str	r1, [r3]
     820:	0a000001 	beq	82c <ChangeClockDivider+0x20>
     824:	e49de004 	ldr	lr, [sp], #4
     828:	ea000b79 	b	3614 <MMU_SetAsyncBusMode>
     82c:	e49de004 	ldr	lr, [sp], #4
     830:	ea000b73 	b	3604 <MMU_SetFastBusMode>
     834:	4c000014 	stcmi	0, cr0, [r0], -#80

00000838 <ChangeUPllValue>:
     838:	e1a01201 	mov	r1, r1, lsl #4
     83c:	e1811600 	orr	r1, r1, r0, lsl #12
     840:	e59f3008 	ldr	r3, [pc, #8]	; 850 <ChangeUPllValue+0x18>
     844:	e1811002 	orr	r1, r1, r2
     848:	e5831000 	str	r1, [r3]
     84c:	e1a0f00e 	mov	pc, lr
     850:	4c000008 	stcmi	0, cr0, [r0], -#32

00000854 <MemoryTest>:
     854:	e1a0c00d 	mov	ip, sp
     858:	e3a01203 	mov	r1, #805306368	; 0x30000000
     85c:	e59f0078 	ldr	r0, [pc, #120]	; 8dc <MemoryTest+0x88>
     860:	e59f2078 	ldr	r2, [pc, #120]	; 8e0 <MemoryTest+0x8c>
     864:	e92dd830 	stmdb	sp!, {r4, r5, fp, ip, lr, pc}
     868:	e24cb004 	sub	fp, ip, #4	; 0x4
     86c:	ebffffb3 	bl	740 <Uart_Printf>
     870:	e59f306c 	ldr	r3, [pc, #108]	; 8e4 <MemoryTest+0x90>
     874:	e3a04000 	mov	r4, #0	; 0x0
     878:	e3a01203 	mov	r1, #805306368	; 0x30000000
     87c:	e5811000 	str	r1, [r1]
     880:	e2811004 	add	r1, r1, #4	; 0x4
     884:	e1510003 	cmp	r1, r3
     888:	9afffffb 	bls	87c <MemoryTest+0x28>
     88c:	e59f0054 	ldr	r0, [pc, #84]	; 8e8 <MemoryTest+0x94>
     890:	ebffffaa 	bl	740 <Uart_Printf>
     894:	e3a01203 	mov	r1, #805306368	; 0x30000000
     898:	e59f3044 	ldr	r3, [pc, #68]	; 8e4 <MemoryTest+0x90>
     89c:	e1510003 	cmp	r1, r3
     8a0:	8a000006 	bhi	8c0 <MemoryTest+0x6c>
     8a4:	e5912000 	ldr	r2, [r1]
     8a8:	e1520001 	cmp	r2, r1
     8ac:	0a000008 	beq	8d4 <MemoryTest+0x80>
     8b0:	e1a01005 	mov	r1, r5
     8b4:	e59f0030 	ldr	r0, [pc, #48]	; 8ec <MemoryTest+0x98>
     8b8:	e3a04001 	mov	r4, #1	; 0x1
     8bc:	ebffff9f 	bl	740 <Uart_Printf>
     8c0:	e3540000 	cmp	r4, #0	; 0x0
     8c4:	191ba830 	ldmnedb	fp, {r4, r5, fp, sp, pc}
     8c8:	e59f0020 	ldr	r0, [pc, #32]	; 8f0 <MemoryTest+0x9c>
     8cc:	e91b6830 	ldmdb	fp, {r4, r5, fp, sp, lr}
     8d0:	eaffff9a 	b	740 <Uart_Printf>
     8d4:	e2821004 	add	r1, r2, #4	; 0x4
     8d8:	eaffffee 	b	898 <MemoryTest+0x44>
     8dc:	000049c8 	andeq	r4, r0, r8, asr #19
     8e0:	03ff0000 	mvneqs	r0, #0	; 0x0
     8e4:	33feffff 	mvnccs	pc, #1020	; 0x3fc
     8e8:	000049e0 	andeq	r4, r0, r0, ror #19
     8ec:	000049e8 	andeq	r4, r0, r8, ror #19
     8f0:	000049fc 	streqd	r4, [r0], -ip

000008f4 <MMU_Init>:
     8f4:	e1a0c00d 	mov	ip, sp
     8f8:	e92dd830 	stmdb	sp!, {r4, r5, fp, ip, lr, pc}
     8fc:	e24cb004 	sub	fp, ip, #4	; 0x4
     900:	eb000b2b 	bl	35b4 <MMU_DisableDCache>
     904:	eb000b22 	bl	3594 <MMU_DisableICache>
     908:	e3a05000 	mov	r5, #0	; 0x0
     90c:	e3a04000 	mov	r4, #0	; 0x0
     910:	e1a00284 	mov	r0, r4, lsl #5
     914:	e1800d05 	orr	r0, r0, r5, lsl #26
     918:	e2844001 	add	r4, r4, #1	; 0x1
     91c:	eb000b56 	bl	367c <MMU_CleanInvalidateDCacheIndex>
     920:	e3540007 	cmp	r4, #7	; 0x7
     924:	dafffff9 	ble	910 <MMU_Init+0x1c>
     928:	e2855001 	add	r5, r5, #1	; 0x1
     92c:	e355003f 	cmp	r5, #63	; 0x3f
     930:	dafffff5 	ble	90c <MMU_Init+0x18>
     934:	e59f4140 	ldr	r4, [pc, #320]	; a7c <MMU_Init+0x188>
     938:	eb000b3f 	bl	363c <MMU_InvalidateICache>
     93c:	eb000b2c 	bl	35f4 <MMU_DisableMMU>
     940:	eb000b51 	bl	368c <MMU_InvalidateTLB>
     944:	e3a00000 	mov	r0, #0	; 0x0
     948:	e1a02000 	mov	r2, r0
     94c:	e1a03004 	mov	r3, r4
     950:	e3a0167f 	mov	r1, #133169152	; 0x7f00000
     954:	eb00007a 	bl	b44 <MMU_SetMTT>
     958:	e3a00302 	mov	r0, #134217728	; 0x8000000
     95c:	e1a03004 	mov	r3, r4
     960:	e1a02000 	mov	r2, r0
     964:	e3a016ff 	mov	r1, #267386880	; 0xff00000
     968:	e2444008 	sub	r4, r4, #8	; 0x8
     96c:	eb000074 	bl	b44 <MMU_SetMTT>
     970:	e3a00201 	mov	r0, #268435456	; 0x10000000
     974:	e1a02000 	mov	r2, r0
     978:	e1a03004 	mov	r3, r4
     97c:	e59f10fc 	ldr	r1, [pc, #252]	; a80 <MMU_Init+0x18c>
     980:	eb00006f 	bl	b44 <MMU_SetMTT>
     984:	e3a00306 	mov	r0, #402653184	; 0x18000000
     988:	e1a02000 	mov	r2, r0
     98c:	e1a03004 	mov	r3, r4
     990:	e59f10ec 	ldr	r1, [pc, #236]	; a84 <MMU_Init+0x190>
     994:	eb00006a 	bl	b44 <MMU_SetMTT>
     998:	e3a00202 	mov	r0, #536870912	; 0x20000000
     99c:	e1a02000 	mov	r2, r0
     9a0:	e1a03004 	mov	r3, r4
     9a4:	e59f10dc 	ldr	r1, [pc, #220]	; a88 <MMU_Init+0x194>
     9a8:	eb000065 	bl	b44 <MMU_SetMTT>
     9ac:	e3a0030a 	mov	r0, #671088640	; 0x28000000
     9b0:	e1a02000 	mov	r2, r0
     9b4:	e1a03004 	mov	r3, r4
     9b8:	e59f50cc 	ldr	r5, [pc, #204]	; a8c <MMU_Init+0x198>
     9bc:	e59f10cc 	ldr	r1, [pc, #204]	; a90 <MMU_Init+0x19c>
     9c0:	eb00005f 	bl	b44 <MMU_SetMTT>
     9c4:	e3a00203 	mov	r0, #805306368	; 0x30000000
     9c8:	e1a02000 	mov	r2, r0
     9cc:	e1a03005 	mov	r3, r5
     9d0:	e59f10bc 	ldr	r1, [pc, #188]	; a94 <MMU_Init+0x1a0>
     9d4:	eb00005a 	bl	b44 <MMU_SetMTT>
     9d8:	e3a00431 	mov	r0, #822083584	; 0x31000000
     9dc:	e1a02000 	mov	r2, r0
     9e0:	e1a03004 	mov	r3, r4
     9e4:	e59f10ac 	ldr	r1, [pc, #172]	; a98 <MMU_Init+0x1a4>
     9e8:	eb000055 	bl	b44 <MMU_SetMTT>
     9ec:	e59f00a8 	ldr	r0, [pc, #168]	; a9c <MMU_Init+0x1a8>
     9f0:	e1a03005 	mov	r3, r5
     9f4:	e1a01000 	mov	r1, r0
     9f8:	e1a02000 	mov	r2, r0
     9fc:	eb000050 	bl	b44 <MMU_SetMTT>
     a00:	e3a0030e 	mov	r0, #939524096	; 0x38000000
     a04:	e1a02000 	mov	r2, r0
     a08:	e1a03004 	mov	r3, r4
     a0c:	e59f108c 	ldr	r1, [pc, #140]	; aa0 <MMU_Init+0x1ac>
     a10:	eb00004b 	bl	b44 <MMU_SetMTT>
     a14:	e3a00101 	mov	r0, #1073741824	; 0x40000000
     a18:	e1a02000 	mov	r2, r0
     a1c:	e1a03004 	mov	r3, r4
     a20:	e59f107c 	ldr	r1, [pc, #124]	; aa4 <MMU_Init+0x1b0>
     a24:	eb000046 	bl	b44 <MMU_SetMTT>
     a28:	e3a00312 	mov	r0, #1207959552	; 0x48000000
     a2c:	e1a03004 	mov	r3, r4
     a30:	e1a02000 	mov	r2, r0
     a34:	e59f106c 	ldr	r1, [pc, #108]	; aa8 <MMU_Init+0x1b4>
     a38:	eb000041 	bl	b44 <MMU_SetMTT>
     a3c:	e3a0045b 	mov	r0, #1526726656	; 0x5b000000
     a40:	e1a02000 	mov	r2, r0
     a44:	e59f1060 	ldr	r1, [pc, #96]	; aac <MMU_Init+0x1b8>
     a48:	e59f3060 	ldr	r3, [pc, #96]	; ab0 <MMU_Init+0x1bc>
     a4c:	eb00003c 	bl	b44 <MMU_SetMTT>
     a50:	e59f005c 	ldr	r0, [pc, #92]	; ab4 <MMU_Init+0x1c0>
     a54:	eb000af2 	bl	3624 <MMU_SetTTBase>
     a58:	e59f0058 	ldr	r0, [pc, #88]	; ab8 <MMU_Init+0x1c4>
     a5c:	eb000af2 	bl	362c <MMU_SetDomain>
     a60:	e3a00000 	mov	r0, #0	; 0x0
     a64:	eb000b1a 	bl	36d4 <MMU_SetProcessId>
     a68:	eb000ad5 	bl	35c4 <MMU_EnableAlignFault>
     a6c:	eb000adc 	bl	35e4 <MMU_EnableMMU>
     a70:	eb000ac3 	bl	3584 <MMU_EnableICache>
     a74:	e91b6830 	ldmdb	fp, {r4, r5, fp, sp, lr}
     a78:	ea000ac9 	b	35a4 <MMU_EnableDCache>
     a7c:	00000c1a 	andeq	r0, r0, sl, lsl ip
     a80:	17f00000 	ldrneb	r0, [r0, r0]!
     a84:	1ff00000 	swine	0x00f00000	; IMB
     a88:	27f00000 	ldrcsb	r0, [r0, r0]!
     a8c:	00000c1e 	andeq	r0, r0, lr, lsl ip
     a90:	2ff00000 	swics	0x00f00000	; IMB
     a94:	30f00000 	rscccs	r0, r0, r0
     a98:	33e00000 	mvncc	r0, #0	; 0x0
     a9c:	33f00000 	mvnccs	r0, #0	; 0x0
     aa0:	3ff00000 	swicc	0x00f00000	; IMB
     aa4:	47f00000 	ldrmib	r0, [r0, r0]!
     aa8:	5af00000 	bpl	ffc00ab0 <__bss_end__+0xcdbff954>
     aac:	fff00000 	swinv	0x00f00000	; IMB
     ab0:	00000c32 	andeq	r0, r0, r2, lsr ip
     ab4:	33ff8000 	mvnccs	r8, #0	; 0x0
     ab8:	55555551 	ldrplb	r5, [r5, -#1361]

00000abc <ChangeRomCacheStatus>:
     abc:	e1a0c00d 	mov	ip, sp
     ac0:	e92dd870 	stmdb	sp!, {r4, r5, r6, fp, ip, lr, pc}
     ac4:	e24cb004 	sub	fp, ip, #4	; 0x4
     ac8:	e1a06000 	mov	r6, r0
     acc:	eb000ab8 	bl	35b4 <MMU_DisableDCache>
     ad0:	eb000aaf 	bl	3594 <MMU_DisableICache>
     ad4:	e3a05000 	mov	r5, #0	; 0x0
     ad8:	e3a04000 	mov	r4, #0	; 0x0
     adc:	e1a00284 	mov	r0, r4, lsl #5
     ae0:	e1800d05 	orr	r0, r0, r5, lsl #26
     ae4:	e2844001 	add	r4, r4, #1	; 0x1
     ae8:	eb000ae3 	bl	367c <MMU_CleanInvalidateDCacheIndex>
     aec:	e3540007 	cmp	r4, #7	; 0x7
     af0:	dafffff9 	ble	adc <ChangeRomCacheStatus+0x20>
     af4:	e2855001 	add	r5, r5, #1	; 0x1
     af8:	e355003f 	cmp	r5, #63	; 0x3f
     afc:	dafffff5 	ble	ad8 <ChangeRomCacheStatus+0x1c>
     b00:	eb000acd 	bl	363c <MMU_InvalidateICache>
     b04:	eb000aba 	bl	35f4 <MMU_DisableMMU>
     b08:	eb000adf 	bl	368c <MMU_InvalidateTLB>
     b0c:	e3a00000 	mov	r0, #0	; 0x0
     b10:	e1a02000 	mov	r2, r0
     b14:	e1a03006 	mov	r3, r6
     b18:	e3a0167f 	mov	r1, #133169152	; 0x7f00000
     b1c:	eb000008 	bl	b44 <MMU_SetMTT>
     b20:	e3a00302 	mov	r0, #134217728	; 0x8000000
     b24:	e1a03006 	mov	r3, r6
     b28:	e3a016ff 	mov	r1, #267386880	; 0xff00000
     b2c:	e1a02000 	mov	r2, r0
     b30:	eb000003 	bl	b44 <MMU_SetMTT>
     b34:	eb000aaa 	bl	35e4 <MMU_EnableMMU>
     b38:	eb000a91 	bl	3584 <MMU_EnableICache>
     b3c:	e91b6870 	ldmdb	fp, {r4, r5, r6, fp, sp, lr}
     b40:	ea000a97 	b	35a4 <MMU_EnableDCache>

00000b44 <MMU_SetMTT>:
     b44:	e1a00a40 	mov	r0, r0, asr #20
     b48:	e52de004 	str	lr, [sp, -#4]!
     b4c:	e1a0c003 	mov	ip, r3
     b50:	e060ea41 	rsb	lr, r0, r1, asr #20
     b54:	e59f3028 	ldr	r3, [pc, #40]	; b84 <MMU_SetMTT+0x40>
     b58:	e3a01000 	mov	r1, #0	; 0x0
     b5c:	e151000e 	cmp	r1, lr
     b60:	e0830100 	add	r0, r3, r0, lsl #2
     b64:	c49df004 	ldrgt	pc, [sp], #4
     b68:	e0813a42 	add	r3, r1, r2, asr #20
     b6c:	e2811001 	add	r1, r1, #1	; 0x1
     b70:	e18c3a03 	orr	r3, ip, r3, lsl #20
     b74:	e151000e 	cmp	r1, lr
     b78:	e4803004 	str	r3, [r0], #4
     b7c:	dafffff9 	ble	b68 <MMU_SetMTT+0x24>
     b80:	e49df004 	ldr	pc, [sp], #4
     b84:	33ff8000 	mvnccs	r8, #0	; 0x0

00000b88 <Timer_InitEx>:
     b88:	e59f103c 	ldr	r1, [pc, #60]	; bcc <Timer_InitEx+0x44>
     b8c:	e3a02c02 	mov	r2, #512	; 0x200
     b90:	e3a0344a 	mov	r3, #1241513984	; 0x4a000000
     b94:	e5832000 	str	r2, [r3]
     b98:	e59f0030 	ldr	r0, [pc, #48]	; bd0 <Timer_InitEx+0x48>
     b9c:	e5812000 	str	r2, [r1]
     ba0:	e5913000 	ldr	r3, [r1]
     ba4:	e59f3028 	ldr	r3, [pc, #40]	; bd4 <Timer_InitEx+0x4c>
     ba8:	e5902000 	ldr	r2, [r0]
     bac:	e3a01000 	mov	r1, #0	; 0x0
     bb0:	e5831000 	str	r1, [r3]
     bb4:	e59f101c 	ldr	r1, [pc, #28]	; bd8 <Timer_InitEx+0x50>
     bb8:	e59f301c 	ldr	r3, [pc, #28]	; bdc <Timer_InitEx+0x54>
     bbc:	e3c22c02 	bic	r2, r2, #512	; 0x200
     bc0:	e5831000 	str	r1, [r3]
     bc4:	e5802000 	str	r2, [r0]
     bc8:	e1a0f00e 	mov	pc, lr
     bcc:	4a000010 	bmi	c14 <Timer_StartEx+0x34>
     bd0:	4a000008 	bmi	bf8 <Timer_StartEx+0x18>
     bd4:	32000034 	andcc	r0, r0, #52	; 0x34
     bd8:	00000c78 	andeq	r0, r0, r8, ror ip
     bdc:	33ffff44 	mvnccs	pc, #272	; 0x110

00000be0 <Timer_StartEx>:
     be0:	e59f3020 	ldr	r3, [pc, #32]	; c08 <Timer_StartEx+0x28>
     be4:	e3a01453 	mov	r1, #1392508928	; 0x53000000
     be8:	e5813000 	str	r3, [r1]
     bec:	e59f2018 	ldr	r2, [pc, #24]	; c0c <Timer_StartEx+0x2c>
     bf0:	e59f3018 	ldr	r3, [pc, #24]	; c10 <Timer_StartEx+0x30>
     bf4:	e4832004 	str	r2, [r3], #4
     bf8:	e5832000 	str	r2, [r3]
     bfc:	e59f3010 	ldr	r3, [pc, #16]	; c14 <Timer_StartEx+0x34>
     c00:	e5813000 	str	r3, [r1]
     c04:	e1a0f00e 	mov	pc, lr
     c08:	00002c04 	andeq	r2, r0, r4, lsl #24
     c0c:	0000ffff 	streqd	pc, [r0], -pc
     c10:	53000004 	tstpl	r0, #4	; 0x4
     c14:	00002c24 	andeq	r2, r0, r4, lsr #24

00000c18 <Timer_StopEx>:
     c18:	e59f1048 	ldr	r1, [pc, #72]	; c68 <Timer_StopEx+0x50>
     c1c:	e3a02b0b 	mov	r2, #11264	; 0x2c00
     c20:	e3a03453 	mov	r3, #1392508928	; 0x53000000
     c24:	e5832000 	str	r2, [r3]
     c28:	e5913000 	ldr	r3, [r1]
     c2c:	e3833c02 	orr	r3, r3, #512	; 0x200
     c30:	e5813000 	str	r3, [r1]
     c34:	e59f3030 	ldr	r3, [pc, #48]	; c6c <Timer_StopEx+0x54>
     c38:	e5930000 	ldr	r0, [r3]
     c3c:	e59f302c 	ldr	r3, [pc, #44]	; c70 <Timer_StopEx+0x58>
     c40:	e0600800 	rsb	r0, r0, r0, lsl #16
     c44:	e5933000 	ldr	r3, [r3]
     c48:	e0630000 	rsb	r0, r3, r0
     c4c:	e2800cff 	add	r0, r0, #65280	; 0xff00
     c50:	e59f301c 	ldr	r3, [pc, #28]	; c74 <Timer_StopEx+0x5c>
     c54:	e28000ff 	add	r0, r0, #255	; 0xff
     c58:	e0c32390 	smull	r2, r3, r0, r3
     c5c:	e1a00fc0 	mov	r0, r0, asr #31
     c60:	e0600743 	rsb	r0, r0, r3, asr #14
     c64:	e1a0f00e 	mov	pc, lr
     c68:	4a000008 	bmi	c90 <IsrWatchdog+0x18>
     c6c:	32000034 	andcc	r0, r0, #52	; 0x34
     c70:	53000008 	tstpl	r0, #8	; 0x8
     c74:	431bde83 	tstmi	fp, #2096	; 0x830

00000c78 <IsrWatchdog>:
     c78:	e59fc024 	ldr	ip, [pc, #36]	; ca4 <IsrWatchdog+0x2c>
     c7c:	e59f0024 	ldr	r0, [pc, #36]	; ca8 <IsrWatchdog+0x30>
     c80:	e3a01c02 	mov	r1, #512	; 0x200
     c84:	e3a0344a 	mov	r3, #1241513984	; 0x4a000000
     c88:	e59c2000 	ldr	r2, [ip]
     c8c:	e5831000 	str	r1, [r3]
     c90:	e5801000 	str	r1, [r0]
     c94:	e5903000 	ldr	r3, [r0]
     c98:	e2822001 	add	r2, r2, #1	; 0x1
     c9c:	e58c2000 	str	r2, [ip]
     ca0:	e1a0f00e 	mov	pc, lr
     ca4:	32000034 	andcc	r0, r0, #52	; 0x34
     ca8:	4a000010 	bmi	cf0 <mem_cpy+0x1c>

00000cac <str_len>:
     cac:	e4d03001 	ldrb	r3, [r0], #1
     cb0:	e3a02000 	mov	r2, #0	; 0x0
     cb4:	e1530002 	cmp	r3, r2
     cb8:	0a000003 	beq	ccc <str_len+0x20>
     cbc:	e4d03001 	ldrb	r3, [r0], #1
     cc0:	e2822001 	add	r2, r2, #1	; 0x1
     cc4:	e3530000 	cmp	r3, #0	; 0x0
     cc8:	1afffffb 	bne	cbc <str_len+0x10>
     ccc:	e1a00002 	mov	r0, r2
     cd0:	e1a0f00e 	mov	pc, lr

00000cd4 <mem_cpy>:
     cd4:	e3520000 	cmp	r2, #0	; 0x0
     cd8:	e1a0c000 	mov	ip, r0
     cdc:	01a0f00e 	moveq	pc, lr
     ce0:	e4d13001 	ldrb	r3, [r1], #1
     ce4:	e2522001 	subs	r2, r2, #1	; 0x1
     ce8:	e4cc3001 	strb	r3, [ip], #1
     cec:	1afffffb 	bne	ce0 <mem_cpy+0xc>
     cf0:	e1a0f00e 	mov	pc, lr

00000cf4 <str_cpy>:
     cf4:	e1a0c00d 	mov	ip, sp
     cf8:	e92dd870 	stmdb	sp!, {r4, r5, r6, fp, ip, lr, pc}
     cfc:	e1a05001 	mov	r5, r1
     d00:	e1a04000 	mov	r4, r0
     d04:	e1a00005 	mov	r0, r5
     d08:	e24cb004 	sub	fp, ip, #4	; 0x4
     d0c:	ebffffe6 	bl	cac <str_len>
     d10:	e1a06000 	mov	r6, r0
     d14:	e1a01005 	mov	r1, r5
     d18:	e1a00004 	mov	r0, r4
     d1c:	e1a02006 	mov	r2, r6
     d20:	ebffffeb 	bl	cd4 <mem_cpy>
     d24:	e3a03000 	mov	r3, #0	; 0x0
     d28:	e7c43006 	strb	r3, [r4, r6]
     d2c:	e1a00004 	mov	r0, r4
     d30:	e91ba870 	ldmdb	fp, {r4, r5, r6, fp, sp, pc}

00000d34 <str_cat>:
     d34:	e1a0c00d 	mov	ip, sp
     d38:	e92dd830 	stmdb	sp!, {r4, r5, fp, ip, lr, pc}
     d3c:	e1a04001 	mov	r4, r1
     d40:	e24cb004 	sub	fp, ip, #4	; 0x4
     d44:	e1a05000 	mov	r5, r0
     d48:	ebffffd7 	bl	cac <str_len>
     d4c:	e0855000 	add	r5, r5, r0
     d50:	e1a00005 	mov	r0, r5
     d54:	e1a01004 	mov	r1, r4
     d58:	e91b6830 	ldmdb	fp, {r4, r5, fp, sp, lr}
     d5c:	eaffffe4 	b	cf4 <str_cpy>

00000d60 <mem_cmp>:
     d60:	e52de004 	str	lr, [sp, -#4]!
     d64:	e3a0c000 	mov	ip, #0	; 0x0
     d68:	e1a0e002 	mov	lr, r2
     d6c:	e15c000e 	cmp	ip, lr
     d70:	2a000009 	bcs	d9c <mem_cmp+0x3c>
     d74:	e7d0200c 	ldrb	r2, [r0, ip]
     d78:	e7d1300c 	ldrb	r3, [r1, ip]
     d7c:	e28cc001 	add	ip, ip, #1	; 0x1
     d80:	e1520003 	cmp	r2, r3
     d84:	83a00001 	movhi	r0, #1	; 0x1
     d88:	849df004 	ldrhi	pc, [sp], #4
     d8c:	33e00000 	mvncc	r0, #0	; 0x0
     d90:	349df004 	ldrcc	pc, [sp], #4
     d94:	e15c000e 	cmp	ip, lr
     d98:	3afffff5 	bcc	d74 <mem_cmp+0x14>
     d9c:	e3a00000 	mov	r0, #0	; 0x0
     da0:	e49df004 	ldr	pc, [sp], #4

00000da4 <Main>:
     da4:	e3a00001 	mov	r0, #1	; 0x1
     da8:	e1a0c00d 	mov	ip, sp
     dac:	e1a01000 	mov	r1, r0
     db0:	e92dd830 	stmdb	sp!, {r4, r5, fp, ip, lr, pc}
     db4:	e24cb004 	sub	fp, ip, #4	; 0x4
     db8:	ebfffe93 	bl	80c <ChangeClockDivider>
     dbc:	e3a01001 	mov	r1, #1	; 0x1
     dc0:	e1a02001 	mov	r2, r1
     dc4:	e3a00052 	mov	r0, #82	; 0x52
     dc8:	ebfffe88 	bl	7f0 <ChangeMPllValue>
     dcc:	ebfffcd1 	bl	118 <Port_Init>
     dd0:	e59f2150 	ldr	r2, [pc, #336]	; f28 <Main+0x184>
     dd4:	e3a04000 	mov	r4, #0	; 0x0
     dd8:	e5923000 	ldr	r3, [r2]
     ddc:	e59f5148 	ldr	r5, [pc, #328]	; f2c <Main+0x188>
     de0:	e3c3370f 	bic	r3, r3, #3932160	; 0x3c0000
     de4:	e3833705 	orr	r3, r3, #1310720	; 0x140000
     de8:	e5823000 	str	r3, [r2]
     dec:	eb000231 	bl	16b8 <Isr_Init>
     df0:	e59f3138 	ldr	r3, [pc, #312]	; f30 <Main+0x18c>
     df4:	e59f1138 	ldr	r1, [pc, #312]	; f34 <Main+0x190>
     df8:	e5933000 	ldr	r3, [r3]
     dfc:	e3a00000 	mov	r0, #0	; 0x0
     e00:	e5932000 	ldr	r2, [r3]
     e04:	e59f312c 	ldr	r3, [pc, #300]	; f38 <Main+0x194>
     e08:	e1520003 	cmp	r2, r3
     e0c:	159f3128 	ldrne	r3, [pc, #296]	; f3c <Main+0x198>
     e10:	059f3124 	ldreq	r3, [pc, #292]	; f3c <Main+0x198>
     e14:	13a02000 	movne	r2, #0	; 0x0
     e18:	03a02001 	moveq	r2, #1	; 0x1
     e1c:	15832000 	strne	r2, [r3]
     e20:	05832000 	streq	r2, [r3]
     e24:	ebfffcea 	bl	1d4 <Uart_Init>
     e28:	e59f310c 	ldr	r3, [pc, #268]	; f3c <Main+0x198>
     e2c:	e5930000 	ldr	r0, [r3]
     e30:	ebfffd1f 	bl	2b4 <Uart_Select>
     e34:	e59f2104 	ldr	r2, [pc, #260]	; f40 <Main+0x19c>
     e38:	e5923000 	ldr	r3, [r2]
     e3c:	e3c33008 	bic	r3, r3, #8	; 0x8
     e40:	e5823000 	str	r3, [r2]
     e44:	e5923000 	ldr	r3, [r2]
     e48:	e3c33a02 	bic	r3, r3, #8192	; 0x2000
     e4c:	e5823000 	str	r3, [r2]
     e50:	e59f30ec 	ldr	r3, [pc, #236]	; f44 <Main+0x1a0>
     e54:	e5834000 	str	r4, [r3]
     e58:	eb0009c9 	bl	3584 <MMU_EnableICache>
     e5c:	eb00038b 	bl	1c90 <UsbdMain>
     e60:	e1a00004 	mov	r0, r4
     e64:	ebfffc76 	bl	44 <Delay>
     e68:	e59f30d8 	ldr	r3, [pc, #216]	; f48 <Main+0x1a4>
     e6c:	e59f20d8 	ldr	r2, [pc, #216]	; f4c <Main+0x1a8>
     e70:	e3a00006 	mov	r0, #6	; 0x6
     e74:	e5832000 	str	r2, [r3]
     e78:	ebfffe3f 	bl	77c <Led_Display>
     e7c:	e59f00cc 	ldr	r0, [pc, #204]	; f50 <Main+0x1ac>
     e80:	eb000416 	bl	1ee0 <DbgPrintf>
     e84:	e59f00c8 	ldr	r0, [pc, #200]	; f54 <Main+0x1b0>
     e88:	ebfffe2c 	bl	740 <Uart_Printf>
     e8c:	e59f00c4 	ldr	r0, [pc, #196]	; f58 <Main+0x1b4>
     e90:	ebfffe2a 	bl	740 <Uart_Printf>
     e94:	e1a00005 	mov	r0, r5
     e98:	ebfffe28 	bl	740 <Uart_Printf>
     e9c:	e59f10b8 	ldr	r1, [pc, #184]	; f5c <Main+0x1b8>
     ea0:	e59f20b8 	ldr	r2, [pc, #184]	; f60 <Main+0x1bc>
     ea4:	e59f00b8 	ldr	r0, [pc, #184]	; f64 <Main+0x1c0>
     ea8:	ebfffe24 	bl	740 <Uart_Printf>
     eac:	e1a00005 	mov	r0, r5
     eb0:	ebfffe22 	bl	740 <Uart_Printf>
     eb4:	e59f20ac 	ldr	r2, [pc, #172]	; f68 <Main+0x1c4>
     eb8:	e3a010b4 	mov	r1, #180	; 0xb4
     ebc:	e59f00a8 	ldr	r0, [pc, #168]	; f6c <Main+0x1c8>
     ec0:	ebfffe1e 	bl	740 <Uart_Printf>
     ec4:	e59f00a4 	ldr	r0, [pc, #164]	; f70 <Main+0x1cc>
     ec8:	ebfffe1c 	bl	740 <Uart_Printf>
     ecc:	e59f00a0 	ldr	r0, [pc, #160]	; f74 <Main+0x1d0>
     ed0:	ebfffe1a 	bl	740 <Uart_Printf>
     ed4:	e59f009c 	ldr	r0, [pc, #156]	; f78 <Main+0x1d4>
     ed8:	ebfffe18 	bl	740 <Uart_Printf>
     edc:	e59f0098 	ldr	r0, [pc, #152]	; f7c <Main+0x1d8>
     ee0:	ebfffe16 	bl	740 <Uart_Printf>
     ee4:	e59f0094 	ldr	r0, [pc, #148]	; f80 <Main+0x1dc>
     ee8:	ebfffe14 	bl	740 <Uart_Printf>
     eec:	e59f0090 	ldr	r0, [pc, #144]	; f84 <Main+0x1e0>
     ef0:	ebfffe12 	bl	740 <Uart_Printf>
     ef4:	e59f308c 	ldr	r3, [pc, #140]	; f88 <Main+0x1e4>
     ef8:	e3a02001 	mov	r2, #1	; 0x1
     efc:	e59f0088 	ldr	r0, [pc, #136]	; f8c <Main+0x1e8>
     f00:	e5832000 	str	r2, [r3]
     f04:	ebfffe0d 	bl	740 <Uart_Printf>
     f08:	e59f3080 	ldr	r3, [pc, #128]	; f90 <Main+0x1ec>
     f0c:	e5933000 	ldr	r3, [r3]
     f10:	e3530001 	cmp	r3, #1	; 0x1
     f14:	0a000001 	beq	f20 <Main+0x17c>
     f18:	eb00007d 	bl	1114 <WaitDownload>
     f1c:	eafffff9 	b	f08 <Main+0x164>
     f20:	eb00001b 	bl	f94 <Menu>
     f24:	eafffffb 	b	f18 <Main+0x174>
     f28:	56000070 	undefined
     f2c:	00004a04 	andeq	r4, r0, r4, lsl #20
     f30:	32000018 	andcc	r0, r0, #24	; 0x18
     f34:	0001c200 	andeq	ip, r1, r0, lsl #4
     f38:	12345678 	eornes	r5, r4, #125829120	; 0x7800000
     f3c:	3200006c 	andcc	r0, r0, #108	; 0x6c
     f40:	56000080 	strpl	r0, [r0], -r0, lsl #1
     f44:	32000050 	andcc	r0, r0, #80	; 0x50
     f48:	33ffff08 	mvnccs	pc, #32	; 0x20
     f4c:	33fffff0 	mvnccs	pc, #960	; 0x3c0
     f50:	00004a38 	andeq	r4, r0, r8, lsr sl
     f54:	00004a4c 	andeq	r4, r0, ip, asr #20
     f58:	00004a68 	andeq	r4, r0, r8, ror #20
     f5c:	00004a6c 	andeq	r4, r0, ip, ror #20
     f60:	00004a78 	andeq	r4, r0, r8, ror sl
     f64:	00004a84 	andeq	r4, r0, r4, lsl #21
     f68:	00004ac0 	andeq	r4, r0, r0, asr #21
     f6c:	00004ac4 	andeq	r4, r0, r4, asr #21
     f70:	00004ad8 	ldreqd	r4, [r0], -r8
     f74:	00004afc 	streqd	r4, [r0], -ip
     f78:	00004b34 	andeq	r4, r0, r4, lsr fp
     f7c:	00004b70 	andeq	r4, r0, r0, ror fp
     f80:	00004ba8 	andeq	r4, r0, r8, lsr #23
     f84:	00004bd8 	ldreqd	r4, [r0], -r8
     f88:	32000010 	andcc	r0, r0, #16	; 0x10
     f8c:	00004bdc 	ldreqd	r4, [r0], -ip
     f90:	32000014 	andcc	r0, r0, #20	; 0x14

00000f94 <Menu>:
     f94:	e1a0c00d 	mov	ip, sp
     f98:	e92dd800 	stmdb	sp!, {fp, ip, lr, pc}
     f9c:	e24cb004 	sub	fp, ip, #4	; 0x4
     fa0:	e59f311c 	ldr	r3, [pc, #284]	; 10c4 <Menu+0x130>
     fa4:	e3a02001 	mov	r2, #1	; 0x1
     fa8:	e5832000 	str	r2, [r3]
     fac:	e59f0114 	ldr	r0, [pc, #276]	; 10c8 <Menu+0x134>
     fb0:	ebfffde2 	bl	740 <Uart_Printf>
     fb4:	e59f0110 	ldr	r0, [pc, #272]	; 10cc <Menu+0x138>
     fb8:	ebfffde0 	bl	740 <Uart_Printf>
     fbc:	e59f010c 	ldr	r0, [pc, #268]	; 10d0 <Menu+0x13c>
     fc0:	ebfffdde 	bl	740 <Uart_Printf>
     fc4:	e59f0108 	ldr	r0, [pc, #264]	; 10d4 <Menu+0x140>
     fc8:	ebfffddc 	bl	740 <Uart_Printf>
     fcc:	e59f0104 	ldr	r0, [pc, #260]	; 10d8 <Menu+0x144>
     fd0:	ebfffdda 	bl	740 <Uart_Printf>
     fd4:	ebfffcd2 	bl	324 <Uart_Getch>
     fd8:	e20000ff 	and	r0, r0, #255	; 0xff
     fdc:	e2400030 	sub	r0, r0, #48	; 0x30
     fe0:	e3500003 	cmp	r0, #3	; 0x3
     fe4:	979ff100 	ldrls	pc, [pc, r0, lsl #2]
     fe8:	ea000012 	b	1038 <Menu+0xa4>
     fec:	0000103c 	andeq	r1, r0, ip, lsr r0
     ff0:	00000ffc 	streqd	r0, [r0], -ip
     ff4:	00001054 	andeq	r1, r0, r4, asr r0
     ff8:	00001064 	andeq	r1, r0, r4, rrx
     ffc:	e59f00d8 	ldr	r0, [pc, #216]	; 10dc <Menu+0x148>
    1000:	ebfffdce 	bl	740 <Uart_Printf>
    1004:	e59f00d4 	ldr	r0, [pc, #212]	; 10e0 <Menu+0x14c>
    1008:	ebfffdcc 	bl	740 <Uart_Printf>
    100c:	ebfffd27 	bl	4b0 <Uart_GetIntNum>
    1010:	e59f30cc 	ldr	r3, [pc, #204]	; 10e4 <Menu+0x150>
    1014:	e3a02000 	mov	r2, #0	; 0x0
    1018:	e1a0c000 	mov	ip, r0
    101c:	e5832000 	str	r2, [r3]
    1020:	e59f00c0 	ldr	r0, [pc, #192]	; 10e8 <Menu+0x154>
    1024:	e59f30c0 	ldr	r3, [pc, #192]	; 10ec <Menu+0x158>
    1028:	e1a0100c 	mov	r1, ip
    102c:	e583c000 	str	ip, [r3]
    1030:	e91b6800 	ldmdb	fp, {fp, sp, lr}
    1034:	eafffdc1 	b	740 <Uart_Printf>
    1038:	eaffffdb 	b	fac <Menu+0x18>
    103c:	e59f00ac 	ldr	r0, [pc, #172]	; 10f0 <Menu+0x15c>
    1040:	ebfffdbe 	bl	740 <Uart_Printf>
    1044:	e59f3098 	ldr	r3, [pc, #152]	; 10e4 <Menu+0x150>
    1048:	e3a02001 	mov	r2, #1	; 0x1
    104c:	e5832000 	str	r2, [r3]
    1050:	e91ba800 	ldmdb	fp, {fp, sp, pc}
    1054:	e59f0098 	ldr	r0, [pc, #152]	; 10f4 <Menu+0x160>
    1058:	ebfffdb8 	bl	740 <Uart_Printf>
    105c:	ebfffdfc 	bl	854 <MemoryTest>
    1060:	eaffffce 	b	fa0 <Menu+0xc>
    1064:	e59f008c 	ldr	r0, [pc, #140]	; 10f8 <Menu+0x164>
    1068:	ebfffdb4 	bl	740 <Uart_Printf>
    106c:	ebfffcac 	bl	324 <Uart_Getch>
    1070:	e20000ff 	and	r0, r0, #255	; 0xff
    1074:	e3500031 	cmp	r0, #49	; 0x31
    1078:	0a000008 	beq	10a0 <Menu+0x10c>
    107c:	e59f3078 	ldr	r3, [pc, #120]	; 10fc <Menu+0x168>
    1080:	e59f0078 	ldr	r0, [pc, #120]	; 1100 <Menu+0x16c>
    1084:	e5932000 	ldr	r2, [r3]
    1088:	e3a03000 	mov	r3, #0	; 0x0
    108c:	e5823000 	str	r3, [r2]
    1090:	ebfffdaa 	bl	740 <Uart_Printf>
    1094:	e59f0068 	ldr	r0, [pc, #104]	; 1104 <Menu+0x170>
    1098:	ebfffda8 	bl	740 <Uart_Printf>
    109c:	eafffffe 	b	109c <Menu+0x108>
    10a0:	e59f3054 	ldr	r3, [pc, #84]	; 10fc <Menu+0x168>
    10a4:	e59f005c 	ldr	r0, [pc, #92]	; 1108 <Menu+0x174>
    10a8:	e5932000 	ldr	r2, [r3]
    10ac:	e59f3058 	ldr	r3, [pc, #88]	; 110c <Menu+0x178>
    10b0:	e5823000 	str	r3, [r2]
    10b4:	ebfffda1 	bl	740 <Uart_Printf>
    10b8:	e59f0050 	ldr	r0, [pc, #80]	; 1110 <Menu+0x17c>
    10bc:	ebfffd9f 	bl	740 <Uart_Printf>
    10c0:	eafffff3 	b	1094 <Menu+0x100>
    10c4:	32000014 	andcc	r0, r0, #20	; 0x14
    10c8:	00004be8 	andeq	r4, r0, r8, ror #23
    10cc:	00004c04 	andeq	r4, r0, r4, lsl #24
    10d0:	00004c1c 	andeq	r4, r0, ip, lsl ip
    10d4:	00004c30 	andeq	r4, r0, r0, lsr ip
    10d8:	00004c44 	andeq	r4, r0, r4, asr #24
    10dc:	00004c68 	andeq	r4, r0, r8, ror #24
    10e0:	00004c88 	andeq	r4, r0, r8, lsl #25
    10e4:	32000010 	andcc	r0, r0, #16	; 0x10
    10e8:	00004cb8 	streqh	r4, [r0], -r8
    10ec:	32000054 	andcc	r0, r0, #84	; 0x54
    10f0:	00004ce4 	andeq	r4, r0, r4, ror #25
    10f4:	00004d04 	andeq	r4, r0, r4, lsl #26
    10f8:	00004d20 	andeq	r4, r0, r0, lsr #26
    10fc:	32000018 	andcc	r0, r0, #24	; 0x18
    1100:	00004d60 	andeq	r4, r0, r0, ror #26
    1104:	00004d94 	muleq	r0, r4, sp
    1108:	00004dc8 	andeq	r4, r0, r8, asr #27
    110c:	12345678 	eornes	r5, r4, #125829120	; 0x7800000
    1110:	00004dfc 	streqd	r4, [r0], -ip

00001114 <WaitDownload>:
    1114:	e1a0c00d 	mov	ip, sp
    1118:	e92dd870 	stmdb	sp!, {r4, r5, r6, fp, ip, lr, pc}
    111c:	e59f3520 	ldr	r3, [pc, #1312]	; 1644 <WaitDownload+0x530>
    1120:	e3a02000 	mov	r2, #0	; 0x0
    1124:	e24cb004 	sub	fp, ip, #4	; 0x4
    1128:	e59f1518 	ldr	r1, [pc, #1304]	; 1648 <WaitDownload+0x534>
    112c:	e24dd010 	sub	sp, sp, #16	; 0x10
    1130:	e59f4514 	ldr	r4, [pc, #1300]	; 164c <WaitDownload+0x538>
    1134:	e1c320b0 	strh	r2, [r3]
    1138:	e24b3028 	sub	r3, fp, #40	; 0x28
    113c:	e5813000 	str	r3, [r1]
    1140:	e59f3508 	ldr	r3, [pc, #1288]	; 1650 <WaitDownload+0x53c>
    1144:	e5911000 	ldr	r1, [r1]
    1148:	e5842000 	str	r2, [r4]
    114c:	e5933000 	ldr	r3, [r3]
    1150:	e1a05002 	mov	r5, r2
    1154:	e1530002 	cmp	r3, r2
    1158:	e59f34f4 	ldr	r3, [pc, #1268]	; 1654 <WaitDownload+0x540>
    115c:	e3a06001 	mov	r6, #1	; 0x1
    1160:	e5831000 	str	r1, [r3]
    1164:	0a000133 	beq	1638 <WaitDownload+0x524>
    1168:	e5943000 	ldr	r3, [r4]
    116c:	e3530000 	cmp	r3, #0	; 0x0
    1170:	0a00010c 	beq	15a8 <WaitDownload+0x494>
    1174:	ebfffe83 	bl	b88 <Timer_InitEx>
    1178:	ebfffe98 	bl	be0 <Timer_StartEx>
    117c:	e59f34d4 	ldr	r3, [pc, #1236]	; 1658 <WaitDownload+0x544>
    1180:	e5932000 	ldr	r2, [r3]
    1184:	e3c22702 	bic	r2, r2, #524288	; 0x80000
    1188:	e5832000 	str	r2, [r3]
    118c:	eb00049e 	bl	240c <ClearEp3OutPktReady>
    1190:	e59f14b4 	ldr	r1, [pc, #1204]	; 164c <WaitDownload+0x538>
    1194:	e5913000 	ldr	r3, [r1]
    1198:	e3530020 	cmp	r3, #32	; 0x20
    119c:	95912000 	ldrls	r2, [r1]
    11a0:	959f34b4 	ldrls	r3, [pc, #1204]	; 165c <WaitDownload+0x548>
    11a4:	95832000 	strls	r2, [r3]
    11a8:	9a000020 	bls	1230 <WaitDownload+0x11c>
    11ac:	e5913000 	ldr	r3, [r1]
    11b0:	e3530702 	cmp	r3, #524288	; 0x80000
    11b4:	8a000096 	bhi	1414 <WaitDownload+0x300>
    11b8:	e59f3488 	ldr	r3, [pc, #1160]	; 1648 <WaitDownload+0x534>
    11bc:	e5930000 	ldr	r0, [r3]
    11c0:	e5911000 	ldr	r1, [r1]
    11c4:	e2800018 	add	r0, r0, #24	; 0x18
    11c8:	e2411020 	sub	r1, r1, #32	; 0x20
    11cc:	eb000265 	bl	1b68 <ConfigEp3DmaMode>
    11d0:	e59f3488 	ldr	r3, [pc, #1160]	; 1660 <WaitDownload+0x54c>
    11d4:	e5933000 	ldr	r3, [r3]
    11d8:	e3c334ff 	bic	r3, r3, #-16777216	; 0xff000000
    11dc:	e3c3360f 	bic	r3, r3, #15728640	; 0xf00000
    11e0:	e3530000 	cmp	r3, #0	; 0x0
    11e4:	0afffff9 	beq	11d0 <WaitDownload+0xbc>
    11e8:	e59f3458 	ldr	r3, [pc, #1112]	; 1648 <WaitDownload+0x534>
    11ec:	e59f1470 	ldr	r1, [pc, #1136]	; 1664 <WaitDownload+0x550>
    11f0:	e5932000 	ldr	r2, [r3]
    11f4:	e59f3450 	ldr	r3, [pc, #1104]	; 164c <WaitDownload+0x538>
    11f8:	e5933000 	ldr	r3, [r3]
    11fc:	e0822003 	add	r2, r2, r3
    1200:	e59f3460 	ldr	r3, [pc, #1120]	; 1668 <WaitDownload+0x554>
    1204:	e2422020 	sub	r2, r2, #32	; 0x20
    1208:	e4832004 	str	r2, [r3], #4
    120c:	e3a02000 	mov	r2, #0	; 0x0
    1210:	e5832000 	str	r2, [r3]
    1214:	e5913000 	ldr	r3, [r1]
    1218:	e1a03a23 	mov	r3, r3, lsr #20
    121c:	e1a03a03 	mov	r3, r3, lsl #20
    1220:	e5813000 	str	r3, [r1]
    1224:	e59f3430 	ldr	r3, [pc, #1072]	; 165c <WaitDownload+0x548>
    1228:	e3a02000 	mov	r2, #0	; 0x0
    122c:	e5832000 	str	r2, [r3]
    1230:	e59f3410 	ldr	r3, [pc, #1040]	; 1648 <WaitDownload+0x534>
    1234:	e59f0430 	ldr	r0, [pc, #1072]	; 166c <WaitDownload+0x558>
    1238:	e5931000 	ldr	r1, [r3]
    123c:	e59f3408 	ldr	r3, [pc, #1032]	; 164c <WaitDownload+0x538>
    1240:	e3a05801 	mov	r5, #65536	; 0x10000
    1244:	e5932000 	ldr	r2, [r3]
    1248:	ebfffd3c 	bl	740 <Uart_Printf>
    124c:	e3a01000 	mov	r1, #0	; 0x0
    1250:	e59f0418 	ldr	r0, [pc, #1048]	; 1670 <WaitDownload+0x55c>
    1254:	ebfffd39 	bl	740 <Uart_Printf>
    1258:	e59f43e8 	ldr	r4, [pc, #1000]	; 1648 <WaitDownload+0x534>
    125c:	e59f3410 	ldr	r3, [pc, #1040]	; 1674 <WaitDownload+0x560>
    1260:	e59f63e4 	ldr	r6, [pc, #996]	; 164c <WaitDownload+0x538>
    1264:	e5933000 	ldr	r3, [r3]
    1268:	e5942000 	ldr	r2, [r4]
    126c:	e1a01005 	mov	r1, r5
    1270:	e0623003 	rsb	r3, r2, r3
    1274:	e2833008 	add	r3, r3, #8	; 0x8
    1278:	e1530005 	cmp	r3, r5
    127c:	e59f03f4 	ldr	r0, [pc, #1012]	; 1678 <WaitDownload+0x564>
    1280:	3a000001 	bcc	128c <WaitDownload+0x178>
    1284:	e2855801 	add	r5, r5, #65536	; 0x10000
    1288:	ebfffd2c 	bl	740 <Uart_Printf>
    128c:	e59f33c8 	ldr	r3, [pc, #968]	; 165c <WaitDownload+0x548>
    1290:	e5932000 	ldr	r2, [r3]
    1294:	e5963000 	ldr	r3, [r6]
    1298:	e1520003 	cmp	r2, r3
    129c:	3affffed 	bcc	1258 <WaitDownload+0x144>
    12a0:	ebfffe5c 	bl	c18 <Timer_StopEx>
    12a4:	e5961000 	ldr	r1, [r6]
    12a8:	e59f03c8 	ldr	r0, [pc, #968]	; 1678 <WaitDownload+0x564>
    12ac:	ebfffd23 	bl	740 <Uart_Printf>
    12b0:	e59f03c4 	ldr	r0, [pc, #964]	; 167c <WaitDownload+0x568>
    12b4:	ebfffd21 	bl	740 <Uart_Printf>
    12b8:	e5940000 	ldr	r0, [r4]
    12bc:	e5943000 	ldr	r3, [r4]
    12c0:	e5962000 	ldr	r2, [r6]
    12c4:	e3a0e000 	mov	lr, #0	; 0x0
    12c8:	e0833002 	add	r3, r3, r2
    12cc:	e243300a 	sub	r3, r3, #10	; 0xa
    12d0:	e3c35003 	bic	r5, r3, #3	; 0x3
    12d4:	e1500005 	cmp	r0, r5
    12d8:	2a000011 	bcs	1324 <WaitDownload+0x210>
    12dc:	e4901004 	ldr	r1, [r0], #4
    12e0:	e20130ff 	and	r3, r1, #255	; 0xff
    12e4:	e08e3003 	add	r3, lr, r3
    12e8:	e2012cff 	and	r2, r1, #65280	; 0xff00
    12ec:	e1a03803 	mov	r3, r3, lsl #16
    12f0:	e1a02422 	mov	r2, r2, lsr #8
    12f4:	e0822823 	add	r2, r2, r3, lsr #16
    12f8:	e20138ff 	and	r3, r1, #16711680	; 0xff0000
    12fc:	e1a02802 	mov	r2, r2, lsl #16
    1300:	e1a03823 	mov	r3, r3, lsr #16
    1304:	e0833822 	add	r3, r3, r2, lsr #16
    1308:	e1a03803 	mov	r3, r3, lsl #16
    130c:	e1a01c21 	mov	r1, r1, lsr #24
    1310:	e0811823 	add	r1, r1, r3, lsr #16
    1314:	e1a01801 	mov	r1, r1, lsl #16
    1318:	e1500005 	cmp	r0, r5
    131c:	e1a0e821 	mov	lr, r1, lsr #16
    1320:	3affffed 	bcc	12dc <WaitDownload+0x1c8>
    1324:	e59f231c 	ldr	r2, [pc, #796]	; 1648 <WaitDownload+0x534>
    1328:	e59f131c 	ldr	r1, [pc, #796]	; 164c <WaitDownload+0x538>
    132c:	e5923000 	ldr	r3, [r2]
    1330:	e5910000 	ldr	r0, [r1]
    1334:	e5922000 	ldr	r2, [r2]
    1338:	e5911000 	ldr	r1, [r1]
    133c:	e0833000 	add	r3, r3, r0
    1340:	e0822001 	add	r2, r2, r1
    1344:	e243300a 	sub	r3, r3, #10	; 0xa
    1348:	e3c30003 	bic	r0, r3, #3	; 0x3
    134c:	e242500a 	sub	r5, r2, #10	; 0xa
    1350:	e1500005 	cmp	r0, r5
    1354:	2a000005 	bcs	1370 <WaitDownload+0x25c>
    1358:	e4d03001 	ldrb	r3, [r0], #1
    135c:	e08e3003 	add	r3, lr, r3
    1360:	e1a03803 	mov	r3, r3, lsl #16
    1364:	e1500005 	cmp	r0, r5
    1368:	e1a0e823 	mov	lr, r3, lsr #16
    136c:	3afffff9 	bcc	1358 <WaitDownload+0x244>
    1370:	e59fc2cc 	ldr	ip, [pc, #716]	; 1644 <WaitDownload+0x530>
    1374:	e59f42cc 	ldr	r4, [pc, #716]	; 1648 <WaitDownload+0x534>
    1378:	e59f12cc 	ldr	r1, [pc, #716]	; 164c <WaitDownload+0x538>
    137c:	e1cce0b0 	strh	lr, [ip]
    1380:	e5943000 	ldr	r3, [r4]
    1384:	e5910000 	ldr	r0, [r1]
    1388:	e5942000 	ldr	r2, [r4]
    138c:	e5911000 	ldr	r1, [r1]
    1390:	e0833000 	add	r3, r3, r0
    1394:	e0822001 	add	r2, r2, r1
    1398:	e5522009 	ldrb	r2, [r2, -#9]
    139c:	e553300a 	ldrb	r3, [r3, -#10]
    13a0:	e1dc10b0 	ldrh	r1, [ip]
    13a4:	e0833402 	add	r3, r3, r2, lsl #8
    13a8:	e1a03803 	mov	r3, r3, lsl #16
    13ac:	e1a02823 	mov	r2, r3, lsr #16
    13b0:	e1510002 	cmp	r1, r2
    13b4:	0a000003 	beq	13c8 <WaitDownload+0x2b4>
    13b8:	e1dc10b0 	ldrh	r1, [ip]
    13bc:	e59f02bc 	ldr	r0, [pc, #700]	; 1680 <WaitDownload+0x56c>
    13c0:	ebfffcde 	bl	740 <Uart_Printf>
    13c4:	e91ba870 	ldmdb	fp, {r4, r5, r6, fp, sp, pc}
    13c8:	e59f02b4 	ldr	r0, [pc, #692]	; 1684 <WaitDownload+0x570>
    13cc:	ebfffcdb 	bl	740 <Uart_Printf>
    13d0:	e59f32b0 	ldr	r3, [pc, #688]	; 1688 <WaitDownload+0x574>
    13d4:	e5930000 	ldr	r0, [r3]
    13d8:	ebfffbb9 	bl	2c4 <Uart_TxEmpty>
    13dc:	e59f32a8 	ldr	r3, [pc, #680]	; 168c <WaitDownload+0x578>
    13e0:	e5933000 	ldr	r3, [r3]
    13e4:	e3530001 	cmp	r3, #1	; 0x1
    13e8:	0a000000 	beq	13f0 <WaitDownload+0x2dc>
    13ec:	e91ba870 	ldmdb	fp, {r4, r5, r6, fp, sp, pc}
    13f0:	e59f3260 	ldr	r3, [pc, #608]	; 1658 <WaitDownload+0x544>
    13f4:	e3e02000 	mvn	r2, #0	; 0x0
    13f8:	e5832000 	str	r2, [r3]
    13fc:	e5942000 	ldr	r2, [r4]
    1400:	e59f3288 	ldr	r3, [pc, #648]	; 1690 <WaitDownload+0x57c>
    1404:	e5832000 	str	r2, [r3]
    1408:	e1a0e00f 	mov	lr, pc
    140c:	e1a0f002 	mov	pc, r2
    1410:	e91ba870 	ldmdb	fp, {r4, r5, r6, fp, sp, pc}
    1414:	e59f322c 	ldr	r3, [pc, #556]	; 1648 <WaitDownload+0x534>
    1418:	e59f1274 	ldr	r1, [pc, #628]	; 1694 <WaitDownload+0x580>
    141c:	e5930000 	ldr	r0, [r3]
    1420:	e2800018 	add	r0, r0, #24	; 0x18
    1424:	eb0001cf 	bl	1b68 <ConfigEp3DmaMode>
    1428:	e59f3230 	ldr	r3, [pc, #560]	; 1660 <WaitDownload+0x54c>
    142c:	e5933000 	ldr	r3, [r3]
    1430:	e3c334ff 	bic	r3, r3, #-16777216	; 0xff000000
    1434:	e3c3360f 	bic	r3, r3, #15728640	; 0xf00000
    1438:	e3530000 	cmp	r3, #0	; 0x0
    143c:	0afffff9 	beq	1428 <WaitDownload+0x314>
    1440:	e59f3204 	ldr	r3, [pc, #516]	; 164c <WaitDownload+0x538>
    1444:	e5933000 	ldr	r3, [r3]
    1448:	e3530601 	cmp	r3, #1048576	; 0x100000
    144c:	9a000028 	bls	14f4 <WaitDownload+0x3e0>
    1450:	e59f31f0 	ldr	r3, [pc, #496]	; 1648 <WaitDownload+0x534>
    1454:	e59f223c 	ldr	r2, [pc, #572]	; 1698 <WaitDownload+0x584>
    1458:	e5933000 	ldr	r3, [r3]
    145c:	e59f1200 	ldr	r1, [pc, #512]	; 1664 <WaitDownload+0x550>
    1460:	e0832002 	add	r2, r3, r2
    1464:	e59f31fc 	ldr	r3, [pc, #508]	; 1668 <WaitDownload+0x554>
    1468:	e5832000 	str	r2, [r3]
    146c:	e3a02000 	mov	r2, #0	; 0x0
    1470:	e2833004 	add	r3, r3, #4	; 0x4
    1474:	e5832000 	str	r2, [r3]
    1478:	e5913000 	ldr	r3, [r1]
    147c:	e1a03a23 	mov	r3, r3, lsr #20
    1480:	e1a03a03 	mov	r3, r3, lsl #20
    1484:	e3833702 	orr	r3, r3, #524288	; 0x80000
    1488:	e5813000 	str	r3, [r1]
    148c:	e59f3208 	ldr	r3, [pc, #520]	; 169c <WaitDownload+0x588>
    1490:	e4d32004 	ldrb	r2, [r3], #4
    1494:	e4d31004 	ldrb	r1, [r3], #4
    1498:	e5d33000 	ldrb	r3, [r3]
    149c:	e0822401 	add	r2, r2, r1, lsl #8
    14a0:	e0822803 	add	r2, r2, r3, lsl #16
    14a4:	e59f31f4 	ldr	r3, [pc, #500]	; 16a0 <WaitDownload+0x58c>
    14a8:	e1520003 	cmp	r2, r3
    14ac:	caffff5c 	bgt	1224 <WaitDownload+0x110>
    14b0:	e59f21e4 	ldr	r2, [pc, #484]	; 169c <WaitDownload+0x588>
    14b4:	e59f11e8 	ldr	r1, [pc, #488]	; 16a4 <WaitDownload+0x590>
    14b8:	e3a030ff 	mov	r3, #255	; 0xff
    14bc:	e59f01e4 	ldr	r0, [pc, #484]	; 16a8 <WaitDownload+0x594>
    14c0:	e5c23000 	strb	r3, [r2]
    14c4:	e5c13000 	strb	r3, [r1]
    14c8:	e24330f0 	sub	r3, r3, #240	; 0xf0
    14cc:	e5c03000 	strb	r3, [r0]
    14d0:	e5d23000 	ldrb	r3, [r2]
    14d4:	e5d12000 	ldrb	r2, [r1]
    14d8:	e5d01000 	ldrb	r1, [r0]
    14dc:	e0833402 	add	r3, r3, r2, lsl #8
    14e0:	e59f21b8 	ldr	r2, [pc, #440]	; 16a0 <WaitDownload+0x58c>
    14e4:	e0833801 	add	r3, r3, r1, lsl #16
    14e8:	e1530002 	cmp	r3, r2
    14ec:	daffffef 	ble	14b0 <WaitDownload+0x39c>
    14f0:	eaffff4b 	b	1224 <WaitDownload+0x110>
    14f4:	e59f314c 	ldr	r3, [pc, #332]	; 1648 <WaitDownload+0x534>
    14f8:	e59f2198 	ldr	r2, [pc, #408]	; 1698 <WaitDownload+0x584>
    14fc:	e5933000 	ldr	r3, [r3]
    1500:	e59f115c 	ldr	r1, [pc, #348]	; 1664 <WaitDownload+0x550>
    1504:	e0832002 	add	r2, r3, r2
    1508:	e59f3158 	ldr	r3, [pc, #344]	; 1668 <WaitDownload+0x554>
    150c:	e59fe188 	ldr	lr, [pc, #392]	; 169c <WaitDownload+0x588>
    1510:	e5832000 	str	r2, [r3]
    1514:	e3a02000 	mov	r2, #0	; 0x0
    1518:	e2833004 	add	r3, r3, #4	; 0x4
    151c:	e5832000 	str	r2, [r3]
    1520:	e59f2124 	ldr	r2, [pc, #292]	; 164c <WaitDownload+0x538>
    1524:	e5913000 	ldr	r3, [r1]
    1528:	e5922000 	ldr	r2, [r2]
    152c:	e1a03a23 	mov	r3, r3, lsr #20
    1530:	e2422702 	sub	r2, r2, #524288	; 0x80000
    1534:	e1a03a03 	mov	r3, r3, lsl #20
    1538:	e1833002 	orr	r3, r3, r2
    153c:	e59fc160 	ldr	ip, [pc, #352]	; 16a4 <WaitDownload+0x590>
    1540:	e5813000 	str	r3, [r1]
    1544:	e59f015c 	ldr	r0, [pc, #348]	; 16a8 <WaitDownload+0x594>
    1548:	e5de3000 	ldrb	r3, [lr]
    154c:	e5dc2000 	ldrb	r2, [ip]
    1550:	e5d01000 	ldrb	r1, [r0]
    1554:	e0833402 	add	r3, r3, r2, lsl #8
    1558:	e59f4140 	ldr	r4, [pc, #320]	; 16a0 <WaitDownload+0x58c>
    155c:	e0833801 	add	r3, r3, r1, lsl #16
    1560:	e1530004 	cmp	r3, r4
    1564:	caffff2e 	bgt	1224 <WaitDownload+0x110>
    1568:	e3a030ff 	mov	r3, #255	; 0xff
    156c:	e5ce3000 	strb	r3, [lr]
    1570:	e5cc3000 	strb	r3, [ip]
    1574:	e24330f0 	sub	r3, r3, #240	; 0xf0
    1578:	e5c03000 	strb	r3, [r0]
    157c:	e1a0200c 	mov	r2, ip
    1580:	e1a0300e 	mov	r3, lr
    1584:	e5d33000 	ldrb	r3, [r3]
    1588:	e5d21000 	ldrb	r1, [r2]
    158c:	e1a02000 	mov	r2, r0
    1590:	e5d22000 	ldrb	r2, [r2]
    1594:	e0833401 	add	r3, r3, r1, lsl #8
    1598:	e0833802 	add	r3, r3, r2, lsl #16
    159c:	e1530004 	cmp	r3, r4
    15a0:	dafffff0 	ble	1568 <WaitDownload+0x454>
    15a4:	eaffff1e 	b	1224 <WaitDownload+0x110>
    15a8:	e3560001 	cmp	r6, #1	; 0x1
    15ac:	0a000019 	beq	1618 <WaitDownload+0x504>
    15b0:	e59f30f4 	ldr	r3, [pc, #244]	; 16ac <WaitDownload+0x598>
    15b4:	e3a00006 	mov	r0, #6	; 0x6
    15b8:	e0832395 	umull	r2, r3, r5, r3
    15bc:	e1a03923 	mov	r3, r3, lsr #18
    15c0:	e0833103 	add	r3, r3, r3, lsl #2
    15c4:	e0454803 	sub	r4, r5, r3, lsl #16
    15c8:	e3540000 	cmp	r4, #0	; 0x0
    15cc:	0a00000f 	beq	1610 <WaitDownload+0x4fc>
    15d0:	e354090a 	cmp	r4, #163840	; 0x28000
    15d4:	e3a00009 	mov	r0, #9	; 0x9
    15d8:	e2855001 	add	r5, r5, #1	; 0x1
    15dc:	0a000009 	beq	1608 <WaitDownload+0x4f4>
    15e0:	ebfffb73 	bl	3b4 <Uart_GetKey>
    15e4:	e31000ff 	tst	r0, #255	; 0xff
    15e8:	0a000001 	beq	15f4 <WaitDownload+0x4e0>
    15ec:	e3a06001 	mov	r6, #1	; 0x1
    15f0:	ebfffe67 	bl	f94 <Menu>
    15f4:	e59f3050 	ldr	r3, [pc, #80]	; 164c <WaitDownload+0x538>
    15f8:	e5933000 	ldr	r3, [r3]
    15fc:	e3530000 	cmp	r3, #0	; 0x0
    1600:	1afffedb 	bne	1174 <WaitDownload+0x60>
    1604:	eaffffe7 	b	15a8 <WaitDownload+0x494>
    1608:	ebfffc5b 	bl	77c <Led_Display>
    160c:	eafffff3 	b	15e0 <WaitDownload+0x4cc>
    1610:	ebfffc59 	bl	77c <Led_Display>
    1614:	eaffffed 	b	15d0 <WaitDownload+0x4bc>
    1618:	e59f3030 	ldr	r3, [pc, #48]	; 1650 <WaitDownload+0x53c>
    161c:	e59f008c 	ldr	r0, [pc, #140]	; 16b0 <WaitDownload+0x59c>
    1620:	e5933000 	ldr	r3, [r3]
    1624:	e3530000 	cmp	r3, #0	; 0x0
    1628:	0affffe0 	beq	15b0 <WaitDownload+0x49c>
    162c:	ebfffc43 	bl	740 <Uart_Printf>
    1630:	e3a06000 	mov	r6, #0	; 0x0
    1634:	eaffffdd 	b	15b0 <WaitDownload+0x49c>
    1638:	e59f0074 	ldr	r0, [pc, #116]	; 16b4 <WaitDownload+0x5a0>
    163c:	ebfffc3f 	bl	740 <Uart_Printf>
    1640:	eafffec8 	b	1168 <WaitDownload+0x54>
    1644:	32000048 	andcc	r0, r0, #72	; 0x48
    1648:	32000038 	andcc	r0, r0, #56	; 0x38
    164c:	32000044 	andcc	r0, r0, #68	; 0x44
    1650:	32000050 	andcc	r0, r0, #80	; 0x50
    1654:	32000040 	andcc	r0, r0, #64	; 0x40
    1658:	4a000008 	bmi	1680 <WaitDownload+0x56c>
    165c:	3200004c 	andcc	r0, r0, #76	; 0x4c
    1660:	4b000094 	blmi	18b8 <Ep1Handler+0x90>
    1664:	4b000090 	blmi	18ac <Ep1Handler+0x84>
    1668:	4b000088 	blmi	1890 <Ep1Handler+0x68>
    166c:	00004e2c 	andeq	r4, r0, ip, lsr #28
    1670:	00004e58 	andeq	r4, r0, r8, asr lr
    1674:	4b00009c 	blmi	18ec <Ep1Handler+0xc4>
    1678:	00004e70 	andeq	r4, r0, r0, ror lr
    167c:	00004e7c 	andeq	r4, r0, ip, ror lr
    1680:	00004e98 	muleq	r0, r8, lr
    1684:	00004eb8 	streqh	r4, [r0], -r8
    1688:	3200006c 	andcc	r0, r0, #108	; 0x6c
    168c:	32000010 	andcc	r0, r0, #16	; 0x10
    1690:	3200003c 	andcc	r0, r0, #60	; 0x3c
    1694:	0007ffe0 	andeq	pc, r7, r0, ror #31
    1698:	0007fff8 	streqd	pc, [r7], -r8
    169c:	5200024c 	andpl	r0, r0, #-1073741820	; 0xc0000004
    16a0:	000ffffe 	streqd	pc, [pc], -lr
    16a4:	52000250 	andpl	r0, r0, #5	; 0x5
    16a8:	52000254 	andpl	r0, r0, #1073741829	; 0x40000005
    16ac:	cccccccd 	stcgtl	12, cr12, [ip], #820
    16b0:	00004ec8 	andeq	r4, r0, r8, asr #29
    16b4:	00004ef4 	streqd	r4, [r0], -r4

000016b8 <Isr_Init>:
    16b8:	e59f306c 	ldr	r3, [pc, #108]	; 172c <Isr_Init+0x74>
    16bc:	e59f106c 	ldr	r1, [pc, #108]	; 1730 <Isr_Init+0x78>
    16c0:	e3a02000 	mov	r2, #0	; 0x0
    16c4:	e5832000 	str	r2, [r3]
    16c8:	e3a0c44a 	mov	ip, #1241513984	; 0x4a000000
    16cc:	e3a00702 	mov	r0, #524288	; 0x80000
    16d0:	e2422001 	sub	r2, r2, #1	; 0x1
    16d4:	e2833004 	add	r3, r3, #4	; 0x4
    16d8:	e5832000 	str	r2, [r3]
    16dc:	e58c0000 	str	r0, [ip]
    16e0:	e3a03402 	mov	r3, #33554432	; 0x2000000
    16e4:	e5810000 	str	r0, [r1]
    16e8:	e5912000 	ldr	r2, [r1]
    16ec:	e58c3000 	str	r3, [ip]
    16f0:	e5813000 	str	r3, [r1]
    16f4:	e5913000 	ldr	r3, [r1]
    16f8:	e59f2034 	ldr	r2, [pc, #52]	; 1734 <Isr_Init+0x7c>
    16fc:	e59f3034 	ldr	r3, [pc, #52]	; 1738 <Isr_Init+0x80>
    1700:	e5832000 	str	r2, [r3]
    1704:	e59f2030 	ldr	r2, [pc, #48]	; 173c <Isr_Init+0x84>
    1708:	e2833004 	add	r3, r3, #4	; 0x4
    170c:	e5832000 	str	r2, [r3]
    1710:	e59f2028 	ldr	r2, [pc, #40]	; 1740 <Isr_Init+0x88>
    1714:	e2833004 	add	r3, r3, #4	; 0x4
    1718:	e5832000 	str	r2, [r3]
    171c:	e59f2020 	ldr	r2, [pc, #32]	; 1744 <Isr_Init+0x8c>
    1720:	e2833004 	add	r3, r3, #4	; 0x4
    1724:	e5832000 	str	r2, [r3]
    1728:	e1a0f00e 	mov	pc, lr
    172c:	4a000004 	bmi	1744 <Isr_Init+0x8c>
    1730:	4a000010 	bmi	1778 <HaltSwi+0x14>
    1734:	00001748 	andeq	r1, r0, r8, asr #14
    1738:	33ffff04 	mvnccs	pc, #16	; 0x10
    173c:	00001764 	andeq	r1, r0, r4, ror #14
    1740:	00001780 	andeq	r1, r0, r0, lsl #15
    1744:	0000179c 	muleq	r0, ip, r7

00001748 <HaltUndef>:
    1748:	e1a0c00d 	mov	ip, sp
    174c:	e59f000c 	ldr	r0, [pc, #12]	; 1760 <HaltUndef+0x18>
    1750:	e92dd800 	stmdb	sp!, {fp, ip, lr, pc}
    1754:	e24cb004 	sub	fp, ip, #4	; 0x4
    1758:	ebfffbf8 	bl	740 <Uart_Printf>
    175c:	eafffffe 	b	175c <HaltUndef+0x14>
    1760:	00004f14 	andeq	r4, r0, r4, lsl pc

00001764 <HaltSwi>:
    1764:	e1a0c00d 	mov	ip, sp
    1768:	e59f000c 	ldr	r0, [pc, #12]	; 177c <HaltSwi+0x18>
    176c:	e92dd800 	stmdb	sp!, {fp, ip, lr, pc}
    1770:	e24cb004 	sub	fp, ip, #4	; 0x4
    1774:	ebfffbf1 	bl	740 <Uart_Printf>
    1778:	eafffffe 	b	1778 <HaltSwi+0x14>
    177c:	00004f38 	andeq	r4, r0, r8, lsr pc

00001780 <HaltPabort>:
    1780:	e1a0c00d 	mov	ip, sp
    1784:	e59f000c 	ldr	r0, [pc, #12]	; 1798 <HaltPabort+0x18>
    1788:	e92dd800 	stmdb	sp!, {fp, ip, lr, pc}
    178c:	e24cb004 	sub	fp, ip, #4	; 0x4
    1790:	ebfffbea 	bl	740 <Uart_Printf>
    1794:	eafffffe 	b	1794 <HaltPabort+0x14>
    1798:	00004f4c 	andeq	r4, r0, ip, asr #30

0000179c <HaltDabort>:
    179c:	e1a0c00d 	mov	ip, sp
    17a0:	e59f000c 	ldr	r0, [pc, #12]	; 17b4 <HaltDabort+0x18>
    17a4:	e92dd800 	stmdb	sp!, {fp, ip, lr, pc}
    17a8:	e24cb004 	sub	fp, ip, #4	; 0x4
    17ac:	ebfffbe3 	bl	740 <Uart_Printf>
    17b0:	eafffffe 	b	17b0 <HaltDabort+0x14>
    17b4:	00004f64 	andeq	r4, r0, r4, ror #30

000017b8 <PrepareEp1Fifo>:
    17b8:	e1a0c00d 	mov	ip, sp
    17bc:	e92dd810 	stmdb	sp!, {r4, fp, ip, lr, pc}
    17c0:	e59f3050 	ldr	r3, [pc, #80]	; 1818 <PrepareEp1Fifo+0x60>
    17c4:	e3a02001 	mov	r2, #1	; 0x1
    17c8:	e4c3200c 	strb	r2, [r3], #12
    17cc:	e5d33000 	ldrb	r3, [r3]
    17d0:	e24cb004 	sub	fp, ip, #4	; 0x4
    17d4:	e2422001 	sub	r2, r2, #1	; 0x1
    17d8:	e20340ff 	and	r4, r3, #255	; 0xff
    17dc:	e59f3038 	ldr	r3, [pc, #56]	; 181c <PrepareEp1Fifo+0x64>
    17e0:	e59f0038 	ldr	r0, [pc, #56]	; 1820 <PrepareEp1Fifo+0x68>
    17e4:	e5d33000 	ldrb	r3, [r3]
    17e8:	e0833002 	add	r3, r3, r2
    17ec:	e7c03002 	strb	r3, [r0, r2]
    17f0:	e2822001 	add	r2, r2, #1	; 0x1
    17f4:	e352001f 	cmp	r2, #31	; 0x1f
    17f8:	dafffff7 	ble	17dc <PrepareEp1Fifo+0x24>
    17fc:	e3a01020 	mov	r1, #32	; 0x20
    1800:	eb0000ac 	bl	1ab8 <WrPktEp1>
    1804:	e3c43049 	bic	r3, r4, #73	; 0x49
    1808:	e59f2014 	ldr	r2, [pc, #20]	; 1824 <PrepareEp1Fifo+0x6c>
    180c:	e3833001 	orr	r3, r3, #1	; 0x1
    1810:	e5c23000 	strb	r3, [r2]
    1814:	e91ba810 	ldmdb	fp, {r4, fp, sp, pc}
    1818:	52000178 	andpl	r0, r0, #30	; 0x1e
    181c:	3200001c 	andcc	r0, r0, #28	; 0x1c
    1820:	32000070 	andcc	r0, r0, #112	; 0x70
    1824:	52000184 	andpl	r0, r0, #33	; 0x21

00001828 <Ep1Handler>:
    1828:	e1a0c00d 	mov	ip, sp
    182c:	e92dd830 	stmdb	sp!, {r4, r5, fp, ip, lr, pc}
    1830:	e59f205c 	ldr	r2, [pc, #92]	; 1894 <Ep1Handler+0x6c>
    1834:	e3a03001 	mov	r3, #1	; 0x1
    1838:	e59f5058 	ldr	r5, [pc, #88]	; 1898 <Ep1Handler+0x70>
    183c:	e5c23000 	strb	r3, [r2]
    1840:	e5d54000 	ldrb	r4, [r5]
    1844:	e59f0050 	ldr	r0, [pc, #80]	; 189c <Ep1Handler+0x74>
    1848:	e20410ff 	and	r1, r4, #255	; 0xff
    184c:	e24cb004 	sub	fp, ip, #4	; 0x4
    1850:	eb0001a2 	bl	1ee0 <DbgPrintf>
    1854:	e3140020 	tst	r4, #32	; 0x20
    1858:	e3a01020 	mov	r1, #32	; 0x20
    185c:	e59f003c 	ldr	r0, [pc, #60]	; 18a0 <Ep1Handler+0x78>
    1860:	0a000004 	beq	1878 <Ep1Handler+0x50>
    1864:	e59f0038 	ldr	r0, [pc, #56]	; 18a4 <Ep1Handler+0x7c>
    1868:	eb00019c 	bl	1ee0 <DbgPrintf>
    186c:	e2043096 	and	r3, r4, #150	; 0x96
    1870:	e5c53000 	strb	r3, [r5]
    1874:	e91ba830 	ldmdb	fp, {r4, r5, fp, sp, pc}
    1878:	eb00000b 	bl	18ac <Ep1Handler+0x84>
    187c:	e59f2024 	ldr	r2, [pc, #36]	; 18a8 <Ep1Handler+0x80>
    1880:	e5923000 	ldr	r3, [r2]
    1884:	e2833001 	add	r3, r3, #1	; 0x1
    1888:	e5823000 	str	r3, [r2]
    188c:	e91b6830 	ldmdb	fp, {r4, r5, fp, sp, lr}
    1890:	eaffffc8 	b	17b8 <PrepareEp1Fifo>
    1894:	52000178 	andpl	r0, r0, #30	; 0x1e
    1898:	52000184 	andpl	r0, r0, #33	; 0x21
    189c:	00004f7c 	andeq	r4, r0, ip, ror pc
    18a0:	32000070 	andcc	r0, r0, #112	; 0x70
    18a4:	00004f84 	andeq	r4, r0, r4, lsl #31
    18a8:	3200001c 	andcc	r0, r0, #28	; 0x1c
    18ac:	e1a0c00d 	mov	ip, sp
    18b0:	e92dd870 	stmdb	sp!, {r4, r5, r6, fp, ip, lr, pc}
    18b4:	e1a05001 	mov	r5, r1
    18b8:	e1a06000 	mov	r6, r0
    18bc:	e3a04000 	mov	r4, #0	; 0x0
    18c0:	e59f0028 	ldr	r0, [pc, #40]	; 18f0 <Ep1Handler+0xc8>
    18c4:	e24cb004 	sub	fp, ip, #4	; 0x4
    18c8:	ea000002 	b	18d8 <Ep1Handler+0xb0>
    18cc:	e7d61004 	ldrb	r1, [r6, r4]
    18d0:	e59f001c 	ldr	r0, [pc, #28]	; 18f4 <Ep1Handler+0xcc>
    18d4:	e2844001 	add	r4, r4, #1	; 0x1
    18d8:	eb000180 	bl	1ee0 <DbgPrintf>
    18dc:	e1540005 	cmp	r4, r5
    18e0:	bafffff9 	blt	18cc <Ep1Handler+0xa4>
    18e4:	e59f000c 	ldr	r0, [pc, #12]	; 18f8 <Ep1Handler+0xd0>
    18e8:	e91b6870 	ldmdb	fp, {r4, r5, r6, fp, sp, lr}
    18ec:	ea00017b 	b	1ee0 <DbgPrintf>
    18f0:	00004f8c 	andeq	r4, r0, ip, lsl #31
    18f4:	00004f98 	muleq	r0, r8, pc
    18f8:	00004f9c 	muleq	r0, ip, pc

000018fc <ConfigUsbd>:
    18fc:	e1a0c00d 	mov	ip, sp
    1900:	e92dd800 	stmdb	sp!, {fp, ip, lr, pc}
    1904:	e24cb004 	sub	fp, ip, #4	; 0x4
    1908:	eb000005 	bl	1924 <ReconfigUsbd>
    190c:	e59f200c 	ldr	r2, [pc, #12]	; 1920 <ConfigUsbd+0x24>
    1910:	e5923000 	ldr	r3, [r2]
    1914:	e3c33402 	bic	r3, r3, #33554432	; 0x2000000
    1918:	e5823000 	str	r3, [r2]
    191c:	e91ba800 	ldmdb	fp, {fp, sp, pc}
    1920:	4a000008 	bmi	1948 <ReconfigUsbd+0x24>

00001924 <ReconfigUsbd>:
    1924:	e59f30fc 	ldr	r3, [pc, #252]	; 1a28 <ReconfigUsbd+0x104>
    1928:	e3a02000 	mov	r2, #0	; 0x0
    192c:	e92d47f0 	stmdb	sp!, {r4, r5, r6, r7, r8, r9, sl, lr}
    1930:	e5832000 	str	r2, [r3]
    1934:	e59f30f0 	ldr	r3, [pc, #240]	; 1a2c <ReconfigUsbd+0x108>
    1938:	e59f10f0 	ldr	r1, [pc, #240]	; 1a30 <ReconfigUsbd+0x10c>
    193c:	e59f00f0 	ldr	r0, [pc, #240]	; 1a34 <ReconfigUsbd+0x110>
    1940:	e59fc0f0 	ldr	ip, [pc, #240]	; 1a38 <ReconfigUsbd+0x114>
    1944:	e5c32000 	strb	r2, [r3]
    1948:	e59f70ec 	ldr	r7, [pc, #236]	; 1a3c <ReconfigUsbd+0x118>
    194c:	e59f80ec 	ldr	r8, [pc, #236]	; 1a40 <ReconfigUsbd+0x11c>
    1950:	e59fa0ec 	ldr	sl, [pc, #236]	; 1a44 <ReconfigUsbd+0x120>
    1954:	e3a06001 	mov	r6, #1	; 0x1
    1958:	e3a030c0 	mov	r3, #192	; 0xc0
    195c:	e5c12000 	strb	r2, [r1]
    1960:	e3a0e048 	mov	lr, #72	; 0x48
    1964:	e5c06000 	strb	r6, [r0]
    1968:	e3a04080 	mov	r4, #128	; 0x80
    196c:	e5cc3000 	strb	r3, [ip]
    1970:	e3a05020 	mov	r5, #32	; 0x20
    1974:	e3a02004 	mov	r2, #4	; 0x4
    1978:	e3a09030 	mov	r9, #48	; 0x30
    197c:	e24330be 	sub	r3, r3, #190	; 0xbe
    1980:	e5c16000 	strb	r6, [r1]
    1984:	e5c02000 	strb	r2, [r0]
    1988:	e5cce000 	strb	lr, [ip]
    198c:	e5c79000 	strb	r9, [r7]
    1990:	e5c84000 	strb	r4, [r8]
    1994:	e5ca5000 	strb	r5, [sl]
    1998:	e5c13000 	strb	r3, [r1]
    199c:	e3a03008 	mov	r3, #8	; 0x8
    19a0:	e5c03000 	strb	r3, [r0]
    19a4:	e3a03003 	mov	r3, #3	; 0x3
    19a8:	e5cce000 	strb	lr, [ip]
    19ac:	e5c79000 	strb	r9, [r7]
    19b0:	e5c84000 	strb	r4, [r8]
    19b4:	e5ca5000 	strb	r5, [sl]
    19b8:	e5c13000 	strb	r3, [r1]
    19bc:	e5c02000 	strb	r2, [r0]
    19c0:	e3a03004 	mov	r3, #4	; 0x4
    19c4:	e3a02010 	mov	r2, #16	; 0x10
    19c8:	e5cce000 	strb	lr, [ip]
    19cc:	e5c72000 	strb	r2, [r7]
    19d0:	e5c84000 	strb	r4, [r8]
    19d4:	e3a02008 	mov	r2, #8	; 0x8
    19d8:	e5ca5000 	strb	r5, [sl]
    19dc:	e5c13000 	strb	r3, [r1]
    19e0:	e3a03010 	mov	r3, #16	; 0x10
    19e4:	e5c02000 	strb	r2, [r0]
    19e8:	e5cce000 	strb	lr, [ip]
    19ec:	e5c73000 	strb	r3, [r7]
    19f0:	e59f3050 	ldr	r3, [pc, #80]	; 1a48 <ReconfigUsbd+0x124>
    19f4:	e3a0201f 	mov	r2, #31	; 0x1f
    19f8:	e5c84000 	strb	r4, [r8]
    19fc:	e5ca5000 	strb	r5, [sl]
    1a00:	e5c32000 	strb	r2, [r3]
    1a04:	e2422018 	sub	r2, r2, #24	; 0x18
    1a08:	e2833010 	add	r3, r3, #16	; 0x10
    1a0c:	e5c32000 	strb	r2, [r3]
    1a10:	e2822004 	add	r2, r2, #4	; 0x4
    1a14:	e2833004 	add	r3, r3, #4	; 0x4
    1a18:	e4c32010 	strb	r2, [r3], #16
    1a1c:	e3a02004 	mov	r2, #4	; 0x4
    1a20:	e5c32000 	strb	r2, [r3]
    1a24:	e8bd87f0 	ldmia	sp!, {r4, r5, r6, r7, r8, r9, sl, pc}
    1a28:	320010f8 	andcc	r1, r0, #248	; 0xf8
    1a2c:	52000144 	andpl	r0, r0, #17	; 0x11
    1a30:	52000178 	andpl	r0, r0, #30	; 0x1e
    1a34:	52000180 	andpl	r0, r0, #32	; 0x20
    1a38:	52000184 	andpl	r0, r0, #33	; 0x21
    1a3c:	52000188 	andpl	r0, r0, #34	; 0x22
    1a40:	52000190 	andpl	r0, r0, #36	; 0x24
    1a44:	52000194 	andpl	r0, r0, #37	; 0x25
    1a48:	52000148 	andpl	r0, r0, #18	; 0x12

00001a4c <RdPktEp0>:
    1a4c:	e3a02000 	mov	r2, #0	; 0x0
    1a50:	e1520001 	cmp	r2, r1
    1a54:	a1a0f00e 	movge	pc, lr
    1a58:	e59f3014 	ldr	r3, [pc, #20]	; 1a74 <RdPktEp0+0x28>
    1a5c:	e5d33000 	ldrb	r3, [r3]
    1a60:	e7c03002 	strb	r3, [r0, r2]
    1a64:	e2822001 	add	r2, r2, #1	; 0x1
    1a68:	e1520001 	cmp	r2, r1
    1a6c:	bafffff9 	blt	1a58 <RdPktEp0+0xc>
    1a70:	e1a0f00e 	mov	pc, lr
    1a74:	520001c0 	andpl	r0, r0, #48	; 0x30

00001a78 <WrPktEp0>:
    1a78:	e3a0c000 	mov	ip, #0	; 0x0
    1a7c:	e15c0001 	cmp	ip, r1
    1a80:	a1a0f00e 	movge	pc, lr
    1a84:	e7d0200c 	ldrb	r2, [r0, ip]
    1a88:	e59f3010 	ldr	r3, [pc, #16]	; 1aa0 <WrPktEp0+0x28>
    1a8c:	e28cc001 	add	ip, ip, #1	; 0x1
    1a90:	e15c0001 	cmp	ip, r1
    1a94:	e5c32000 	strb	r2, [r3]
    1a98:	bafffff9 	blt	1a84 <WrPktEp0+0xc>
    1a9c:	e1a0f00e 	mov	pc, lr
    1aa0:	520001c0 	andpl	r0, r0, #48	; 0x30

00001aa4 <WrByteEp0>:
    1aa4:	e59f3008 	ldr	r3, [pc, #8]	; 1ab4 <WrByteEp0+0x10>
    1aa8:	e20000ff 	and	r0, r0, #255	; 0xff
    1aac:	e5c30000 	strb	r0, [r3]
    1ab0:	e1a0f00e 	mov	pc, lr
    1ab4:	520001c0 	andpl	r0, r0, #48	; 0x30

00001ab8 <WrPktEp1>:
    1ab8:	e3a0c000 	mov	ip, #0	; 0x0
    1abc:	e15c0001 	cmp	ip, r1
    1ac0:	a1a0f00e 	movge	pc, lr
    1ac4:	e7d0200c 	ldrb	r2, [r0, ip]
    1ac8:	e59f3010 	ldr	r3, [pc, #16]	; 1ae0 <WrPktEp1+0x28>
    1acc:	e28cc001 	add	ip, ip, #1	; 0x1
    1ad0:	e15c0001 	cmp	ip, r1
    1ad4:	e5c32000 	strb	r2, [r3]
    1ad8:	bafffff9 	blt	1ac4 <WrPktEp1+0xc>
    1adc:	e1a0f00e 	mov	pc, lr
    1ae0:	520001c4 	andpl	r0, r0, #49	; 0x31

00001ae4 <WrPktEp2>:
    1ae4:	e3a0c000 	mov	ip, #0	; 0x0
    1ae8:	e15c0001 	cmp	ip, r1
    1aec:	a1a0f00e 	movge	pc, lr
    1af0:	e7d0200c 	ldrb	r2, [r0, ip]
    1af4:	e59f3010 	ldr	r3, [pc, #16]	; 1b0c <WrPktEp2+0x28>
    1af8:	e28cc001 	add	ip, ip, #1	; 0x1
    1afc:	e15c0001 	cmp	ip, r1
    1b00:	e5c32000 	strb	r2, [r3]
    1b04:	bafffff9 	blt	1af0 <WrPktEp2+0xc>
    1b08:	e1a0f00e 	mov	pc, lr
    1b0c:	520001c8 	andpl	r0, r0, #50	; 0x32

00001b10 <RdPktEp3>:
    1b10:	e3a02000 	mov	r2, #0	; 0x0
    1b14:	e1520001 	cmp	r2, r1
    1b18:	a1a0f00e 	movge	pc, lr
    1b1c:	e59f3014 	ldr	r3, [pc, #20]	; 1b38 <RdPktEp3+0x28>
    1b20:	e5d33000 	ldrb	r3, [r3]
    1b24:	e7c03002 	strb	r3, [r0, r2]
    1b28:	e2822001 	add	r2, r2, #1	; 0x1
    1b2c:	e1520001 	cmp	r2, r1
    1b30:	bafffff9 	blt	1b1c <RdPktEp3+0xc>
    1b34:	e1a0f00e 	mov	pc, lr
    1b38:	520001cc 	andpl	r0, r0, #51	; 0x33

00001b3c <RdPktEp4>:
    1b3c:	e3a02000 	mov	r2, #0	; 0x0
    1b40:	e1520001 	cmp	r2, r1
    1b44:	a1a0f00e 	movge	pc, lr
    1b48:	e59f3014 	ldr	r3, [pc, #20]	; 1b64 <RdPktEp4+0x28>
    1b4c:	e5d33000 	ldrb	r3, [r3]
    1b50:	e7c03002 	strb	r3, [r0, r2]
    1b54:	e2822001 	add	r2, r2, #1	; 0x1
    1b58:	e1520001 	cmp	r2, r1
    1b5c:	bafffff9 	blt	1b48 <RdPktEp4+0xc>
    1b60:	e1a0f00e 	mov	pc, lr
    1b64:	520001d0 	andpl	r0, r0, #52	; 0x34

00001b68 <ConfigEp3DmaMode>:
    1b68:	e59f30ac 	ldr	r3, [pc, #172]	; 1c1c <ConfigEp3DmaMode+0xb4>
    1b6c:	e3a02003 	mov	r2, #3	; 0x3
    1b70:	e52de004 	str	lr, [sp, -#4]!
    1b74:	e5c32000 	strb	r2, [r3]
    1b78:	e59f30a0 	ldr	r3, [pc, #160]	; 1c20 <ConfigEp3DmaMode+0xb8>
    1b7c:	e3c114ff 	bic	r1, r1, #-16777216	; 0xff000000
    1b80:	e5832000 	str	r2, [r3]
    1b84:	e59f2098 	ldr	r2, [pc, #152]	; 1c24 <ConfigEp3DmaMode+0xbc>
    1b88:	e2433004 	sub	r3, r3, #4	; 0x4
    1b8c:	e5832000 	str	r2, [r3]
    1b90:	e3c1160f 	bic	r1, r1, #15728640	; 0xf00000
    1b94:	e3a02000 	mov	r2, #0	; 0x0
    1b98:	e283300c 	add	r3, r3, #12	; 0xc
    1b9c:	e5832000 	str	r2, [r3]
    1ba0:	e3811329 	orr	r1, r1, #-1543503872	; 0xa4000000
    1ba4:	e2433004 	sub	r3, r3, #4	; 0x4
    1ba8:	e5830000 	str	r0, [r3]
    1bac:	e3811502 	orr	r1, r1, #8388608	; 0x800000
    1bb0:	e2833008 	add	r3, r3, #8	; 0x8
    1bb4:	e5831000 	str	r1, [r3]
    1bb8:	e2822002 	add	r2, r2, #2	; 0x2
    1bbc:	e2833010 	add	r3, r3, #16	; 0x10
    1bc0:	e5832000 	str	r2, [r3]
    1bc4:	e59f305c 	ldr	r3, [pc, #92]	; 1c28 <ConfigEp3DmaMode+0xc0>
    1bc8:	e3a0c0ff 	mov	ip, #255	; 0xff
    1bcc:	e4c3c004 	strb	ip, [r3], #4
    1bd0:	e5c3c000 	strb	ip, [r3]
    1bd4:	e59fe050 	ldr	lr, [pc, #80]	; 1c2c <ConfigEp3DmaMode+0xc4>
    1bd8:	e282200d 	add	r2, r2, #13	; 0xd
    1bdc:	e2833004 	add	r3, r3, #4	; 0x4
    1be0:	e5c32000 	strb	r2, [r3]
    1be4:	e5de3000 	ldrb	r3, [lr]
    1be8:	e59f1040 	ldr	r1, [pc, #64]	; 1c30 <ConfigEp3DmaMode+0xc8>
    1bec:	e38330a0 	orr	r3, r3, #160	; 0xa0
    1bf0:	e5ce3000 	strb	r3, [lr]
    1bf4:	e59f3038 	ldr	r3, [pc, #56]	; 1c34 <ConfigEp3DmaMode+0xcc>
    1bf8:	e242200e 	sub	r2, r2, #14	; 0xe
    1bfc:	e5c32000 	strb	r2, [r3]
    1c00:	e3a03005 	mov	r3, #5	; 0x5
    1c04:	e5c13000 	strb	r3, [r1]
    1c08:	e5d13000 	ldrb	r3, [r1]
    1c0c:	e3a03009 	mov	r3, #9	; 0x9
    1c10:	e2533001 	subs	r3, r3, #1	; 0x1
    1c14:	5afffffd 	bpl	1c10 <ConfigEp3DmaMode+0xa8>
    1c18:	e49df004 	ldr	pc, [sp], #4
    1c1c:	52000178 	andpl	r0, r0, #30	; 0x1e
    1c20:	4b000084 	blmi	1e38 <IsrUsbd+0x18c>
    1c24:	520001cc 	andpl	r0, r0, #51	; 0x33
    1c28:	5200024c 	andpl	r0, r0, #-1073741820	; 0xc0000004
    1c2c:	52000194 	andpl	r0, r0, #37	; 0x25
    1c30:	52000240 	andpl	r0, r0, #4	; 0x4
    1c34:	52000244 	andpl	r0, r0, #1073741828	; 0x40000004

00001c38 <ConfigEp3IntMode>:
    1c38:	e59f303c 	ldr	r3, [pc, #60]	; 1c7c <ConfigEp3IntMode+0x44>
    1c3c:	e3a02003 	mov	r2, #3	; 0x3
    1c40:	e5c32000 	strb	r2, [r3]
    1c44:	e59f3034 	ldr	r3, [pc, #52]	; 1c80 <ConfigEp3IntMode+0x48>
    1c48:	e3a0c000 	mov	ip, #0	; 0x0
    1c4c:	e59f0030 	ldr	r0, [pc, #48]	; 1c84 <ConfigEp3IntMode+0x4c>
    1c50:	e583c000 	str	ip, [r3]
    1c54:	e5d03000 	ldrb	r3, [r0]
    1c58:	e59f1028 	ldr	r1, [pc, #40]	; 1c88 <ConfigEp3IntMode+0x50>
    1c5c:	e203307f 	and	r3, r3, #127	; 0x7f
    1c60:	e5c03000 	strb	r3, [r0]
    1c64:	e59f3020 	ldr	r3, [pc, #32]	; 1c8c <ConfigEp3IntMode+0x54>
    1c68:	e2422002 	sub	r2, r2, #2	; 0x2
    1c6c:	e5c32000 	strb	r2, [r3]
    1c70:	e5c1c000 	strb	ip, [r1]
    1c74:	e5d13000 	ldrb	r3, [r1]
    1c78:	e1a0f00e 	mov	pc, lr
    1c7c:	52000178 	andpl	r0, r0, #30	; 0x1e
    1c80:	4b0000a0 	blmi	1f08 <Ep3Handler+0x1c>
    1c84:	52000194 	andpl	r0, r0, #37	; 0x25
    1c88:	52000240 	andpl	r0, r0, #4	; 0x4
    1c8c:	52000244 	andpl	r0, r0, #1073741828	; 0x40000004

00001c90 <UsbdMain>:
    1c90:	e1a0c00d 	mov	ip, sp
    1c94:	e92dd800 	stmdb	sp!, {fp, ip, lr, pc}
    1c98:	e24cb004 	sub	fp, ip, #4	; 0x4
    1c9c:	eb000504 	bl	30b4 <InitDescriptorTable>
    1ca0:	ebffff15 	bl	18fc <ConfigUsbd>
    1ca4:	e91b6800 	ldmdb	fp, {fp, sp, lr}
    1ca8:	eafffec2 	b	17b8 <PrepareEp1Fifo>

00001cac <IsrUsbd>:
    1cac:	e1a0c00d 	mov	ip, sp
    1cb0:	e92dddf0 	stmdb	sp!, {r4, r5, r6, r7, r8, sl, fp, ip, lr, pc}
    1cb4:	e59fa144 	ldr	sl, [pc, #324]	; 1e00 <IsrUsbd+0x154>
    1cb8:	e59f6144 	ldr	r6, [pc, #324]	; 1e04 <IsrUsbd+0x158>
    1cbc:	e59f7144 	ldr	r7, [pc, #324]	; 1e08 <IsrUsbd+0x15c>
    1cc0:	e5da3000 	ldrb	r3, [sl]
    1cc4:	e5d64000 	ldrb	r4, [r6]
    1cc8:	e5d75000 	ldrb	r5, [r7]
    1ccc:	e20420ff 	and	r2, r4, #255	; 0xff
    1cd0:	e20510ff 	and	r1, r5, #255	; 0xff
    1cd4:	e59f0130 	ldr	r0, [pc, #304]	; 1e0c <IsrUsbd+0x160>
    1cd8:	e24cb004 	sub	fp, ip, #4	; 0x4
    1cdc:	e20380ff 	and	r8, r3, #255	; 0xff
    1ce0:	ebfffa96 	bl	740 <Uart_Printf>
    1ce4:	e3140001 	tst	r4, #1	; 0x1
    1ce8:	0a000005 	beq	1d04 <IsrUsbd+0x58>
    1cec:	e3a03001 	mov	r3, #1	; 0x1
    1cf0:	e59f0118 	ldr	r0, [pc, #280]	; 1e10 <IsrUsbd+0x164>
    1cf4:	e5c63000 	strb	r3, [r6]
    1cf8:	eb000078 	bl	1ee0 <DbgPrintf>
    1cfc:	e59f0110 	ldr	r0, [pc, #272]	; 1e14 <IsrUsbd+0x168>
    1d00:	ebfffa8e 	bl	740 <Uart_Printf>
    1d04:	e3140002 	tst	r4, #2	; 0x2
    1d08:	0a000005 	beq	1d24 <IsrUsbd+0x78>
    1d0c:	e3a03002 	mov	r3, #2	; 0x2
    1d10:	e59f0100 	ldr	r0, [pc, #256]	; 1e18 <IsrUsbd+0x16c>
    1d14:	e5c63000 	strb	r3, [r6]
    1d18:	eb000070 	bl	1ee0 <DbgPrintf>
    1d1c:	e59f00f8 	ldr	r0, [pc, #248]	; 1e1c <IsrUsbd+0x170>
    1d20:	ebfffa86 	bl	740 <Uart_Printf>
    1d24:	e3140004 	tst	r4, #4	; 0x4
    1d28:	0a000007 	beq	1d4c <IsrUsbd+0xa0>
    1d2c:	e59f00ec 	ldr	r0, [pc, #236]	; 1e20 <IsrUsbd+0x174>
    1d30:	eb00006a 	bl	1ee0 <DbgPrintf>
    1d34:	ebfffefa 	bl	1924 <ReconfigUsbd>
    1d38:	e3a03004 	mov	r3, #4	; 0x4
    1d3c:	e5c63000 	strb	r3, [r6]
    1d40:	ebfffe9c 	bl	17b8 <PrepareEp1Fifo>
    1d44:	e59f00d8 	ldr	r0, [pc, #216]	; 1e24 <IsrUsbd+0x178>
    1d48:	ebfffa7c 	bl	740 <Uart_Printf>
    1d4c:	e3150001 	tst	r5, #1	; 0x1
    1d50:	0a000004 	beq	1d68 <IsrUsbd+0xbc>
    1d54:	e3a03001 	mov	r3, #1	; 0x1
    1d58:	e5c73000 	strb	r3, [r7]
    1d5c:	eb0001b4 	bl	2434 <Ep0Handler>
    1d60:	e59f00c0 	ldr	r0, [pc, #192]	; 1e28 <IsrUsbd+0x17c>
    1d64:	ebfffa75 	bl	740 <Uart_Printf>
    1d68:	e3150002 	tst	r5, #2	; 0x2
    1d6c:	0a000004 	beq	1d84 <IsrUsbd+0xd8>
    1d70:	e3a03002 	mov	r3, #2	; 0x2
    1d74:	e5c73000 	strb	r3, [r7]
    1d78:	ebfffeaa 	bl	1828 <Ep1Handler>
    1d7c:	e59f00a8 	ldr	r0, [pc, #168]	; 1e2c <IsrUsbd+0x180>
    1d80:	ebfffa6e 	bl	740 <Uart_Printf>
    1d84:	e3150004 	tst	r5, #4	; 0x4
    1d88:	0a000005 	beq	1da4 <IsrUsbd+0xf8>
    1d8c:	e3a03004 	mov	r3, #4	; 0x4
    1d90:	e59f0098 	ldr	r0, [pc, #152]	; 1e30 <IsrUsbd+0x184>
    1d94:	e5c73000 	strb	r3, [r7]
    1d98:	eb000050 	bl	1ee0 <DbgPrintf>
    1d9c:	e59f0090 	ldr	r0, [pc, #144]	; 1e34 <IsrUsbd+0x188>
    1da0:	ebfffa66 	bl	740 <Uart_Printf>
    1da4:	e3150008 	tst	r5, #8	; 0x8
    1da8:	0a000004 	beq	1dc0 <IsrUsbd+0x114>
    1dac:	e3a03008 	mov	r3, #8	; 0x8
    1db0:	e5c73000 	strb	r3, [r7]
    1db4:	eb00004c 	bl	1eec <Ep3Handler>
    1db8:	e59f0078 	ldr	r0, [pc, #120]	; 1e38 <IsrUsbd+0x18c>
    1dbc:	ebfffa5f 	bl	740 <Uart_Printf>
    1dc0:	e3150010 	tst	r5, #16	; 0x10
    1dc4:	0a000005 	beq	1de0 <IsrUsbd+0x134>
    1dc8:	e3a03010 	mov	r3, #16	; 0x10
    1dcc:	e59f0068 	ldr	r0, [pc, #104]	; 1e3c <IsrUsbd+0x190>
    1dd0:	e5c73000 	strb	r3, [r7]
    1dd4:	eb000041 	bl	1ee0 <DbgPrintf>
    1dd8:	e59f0060 	ldr	r0, [pc, #96]	; 1e40 <IsrUsbd+0x194>
    1ddc:	ebfffa57 	bl	740 <Uart_Printf>
    1de0:	e59f105c 	ldr	r1, [pc, #92]	; 1e44 <IsrUsbd+0x198>
    1de4:	e3a02402 	mov	r2, #33554432	; 0x2000000
    1de8:	e3a0344a 	mov	r3, #1241513984	; 0x4a000000
    1dec:	e5832000 	str	r2, [r3]
    1df0:	e5812000 	str	r2, [r1]
    1df4:	e5913000 	ldr	r3, [r1]
    1df8:	e5ca8000 	strb	r8, [sl]
    1dfc:	e91badf0 	ldmdb	fp, {r4, r5, r6, r7, r8, sl, fp, sp, pc}
    1e00:	52000178 	andpl	r0, r0, #30	; 0x1e
    1e04:	52000158 	andpl	r0, r0, #22	; 0x16
    1e08:	52000148 	andpl	r0, r0, #18	; 0x12
    1e0c:	00004fa0 	andeq	r4, r0, r0, lsr #31
    1e10:	00004fbc 	streqh	r4, [r0], -ip
    1e14:	00004fc4 	andeq	r4, r0, r4, asr #31
    1e18:	00004fd4 	ldreqd	r4, [r0], -r4
    1e1c:	00004fdc 	ldreqd	r4, [r0], -ip
    1e20:	00004fec 	andeq	r4, r0, ip, ror #31
    1e24:	00004ff4 	streqd	r4, [r0], -r4
    1e28:	00005004 	andeq	r5, r0, r4
    1e2c:	00005010 	andeq	r5, r0, r0, lsl r0
    1e30:	0000501c 	andeq	r5, r0, ip, lsl r0
    1e34:	00005024 	andeq	r5, r0, r4, lsr #32
    1e38:	00005030 	andeq	r5, r0, r0, lsr r0
    1e3c:	0000503c 	andeq	r5, r0, ip, lsr r0
    1e40:	00005044 	andeq	r5, r0, r4, asr #32
    1e44:	4a000010 	bmi	1e8c <DbgPrintfLoop+0x10>

00001e48 <_WrDbgStrFifo>:
    1e48:	e59f1024 	ldr	r1, [pc, #36]	; 1e74 <_WrDbgStrFifo+0x2c>
    1e4c:	e59f2024 	ldr	r2, [pc, #36]	; 1e78 <_WrDbgStrFifo+0x30>
    1e50:	e5913000 	ldr	r3, [r1]
    1e54:	e7c20003 	strb	r0, [r2, r3]
    1e58:	e2833001 	add	r3, r3, #1	; 0x1
    1e5c:	e5813000 	str	r3, [r1]
    1e60:	e5913000 	ldr	r3, [r1]
    1e64:	e3530a01 	cmp	r3, #4096	; 0x1000
    1e68:	03a03000 	moveq	r3, #0	; 0x0
    1e6c:	05813000 	streq	r3, [r1]
    1e70:	e1a0f00e 	mov	pc, lr
    1e74:	32000024 	andcc	r0, r0, #36	; 0x24
    1e78:	32000090 	andcc	r0, r0, #144	; 0x90

00001e7c <DbgPrintfLoop>:
    1e7c:	e1a0c00d 	mov	ip, sp
    1e80:	e92dd810 	stmdb	sp!, {r4, fp, ip, lr, pc}
    1e84:	e59f2048 	ldr	r2, [pc, #72]	; 1ed4 <DbgPrintfLoop+0x58>
    1e88:	e59f4048 	ldr	r4, [pc, #72]	; 1ed8 <DbgPrintfLoop+0x5c>
    1e8c:	e24cb004 	sub	fp, ip, #4	; 0x4
    1e90:	e5943000 	ldr	r3, [r4]
    1e94:	e5922000 	ldr	r2, [r2]
    1e98:	e3a00000 	mov	r0, #0	; 0x0
    1e9c:	e1530002 	cmp	r3, r2
    1ea0:	091ba810 	ldmeqdb	fp, {r4, fp, sp, pc}
    1ea4:	e5943000 	ldr	r3, [r4]
    1ea8:	e59f202c 	ldr	r2, [pc, #44]	; 1edc <DbgPrintfLoop+0x60>
    1eac:	e7d20003 	ldrb	r0, [r2, r3]
    1eb0:	e2833001 	add	r3, r3, #1	; 0x1
    1eb4:	e5843000 	str	r3, [r4]
    1eb8:	ebfff9c1 	bl	5c4 <Uart_SendByte>
    1ebc:	e5943000 	ldr	r3, [r4]
    1ec0:	e3a00001 	mov	r0, #1	; 0x1
    1ec4:	e3530a01 	cmp	r3, #4096	; 0x1000
    1ec8:	03a03000 	moveq	r3, #0	; 0x0
    1ecc:	05843000 	streq	r3, [r4]
    1ed0:	e91ba810 	ldmdb	fp, {r4, fp, sp, pc}
    1ed4:	32000024 	andcc	r0, r0, #36	; 0x24
    1ed8:	32000020 	andcc	r0, r0, #32	; 0x20
    1edc:	32000090 	andcc	r0, r0, #144	; 0x90

00001ee0 <DbgPrintf>:
    1ee0:	e92d000f 	stmdb	sp!, {r0, r1, r2, r3}
    1ee4:	e28dd010 	add	sp, sp, #16	; 0x10
    1ee8:	e1a0f00e 	mov	pc, lr

00001eec <Ep3Handler>:
    1eec:	e1a0c00d 	mov	ip, sp
    1ef0:	e92dd8f0 	stmdb	sp!, {r4, r5, r6, r7, fp, ip, lr, pc}
    1ef4:	e59f2158 	ldr	r2, [pc, #344]	; 2054 <Ep3Handler+0x168>
    1ef8:	e3a03003 	mov	r3, #3	; 0x3
    1efc:	e59f7154 	ldr	r7, [pc, #340]	; 2058 <Ep3Handler+0x16c>
    1f00:	e5c23000 	strb	r3, [r2]
    1f04:	e5d75000 	ldrb	r5, [r7]
    1f08:	e59f014c 	ldr	r0, [pc, #332]	; 205c <Ep3Handler+0x170>
    1f0c:	e20510ff 	and	r1, r5, #255	; 0xff
    1f10:	e24cb004 	sub	fp, ip, #4	; 0x4
    1f14:	ebfffff1 	bl	1ee0 <DbgPrintf>
    1f18:	e3150001 	tst	r5, #1	; 0x1
    1f1c:	0a000045 	beq	2038 <Ep3Handler+0x14c>
    1f20:	e59f3138 	ldr	r3, [pc, #312]	; 2060 <Ep3Handler+0x174>
    1f24:	e5d32000 	ldrb	r2, [r3]
    1f28:	e59f3134 	ldr	r3, [pc, #308]	; 2064 <Ep3Handler+0x178>
    1f2c:	e20260ff 	and	r6, r2, #255	; 0xff
    1f30:	e5933000 	ldr	r3, [r3]
    1f34:	e3530000 	cmp	r3, #0	; 0x0
    1f38:	0a00000b 	beq	1f6c <Ep3Handler+0x80>
    1f3c:	e59f4124 	ldr	r4, [pc, #292]	; 2068 <Ep3Handler+0x17c>
    1f40:	e59f0124 	ldr	r0, [pc, #292]	; 206c <Ep3Handler+0x180>
    1f44:	ebfff9fd 	bl	740 <Uart_Printf>
    1f48:	e5940000 	ldr	r0, [r4]
    1f4c:	e1a01006 	mov	r1, r6
    1f50:	eb000060 	bl	20d8 <Ep3Handler+0x1ec>
    1f54:	e5943000 	ldr	r3, [r4]
    1f58:	e205204e 	and	r2, r5, #78	; 0x4e
    1f5c:	e0833006 	add	r3, r3, r6
    1f60:	e5843000 	str	r3, [r4]
    1f64:	e5c72000 	strb	r2, [r7]
    1f68:	e91ba8f0 	ldmdb	fp, {r4, r5, r6, r7, fp, sp, pc}
    1f6c:	e59f40f4 	ldr	r4, [pc, #244]	; 2068 <Ep3Handler+0x17c>
    1f70:	e3a01008 	mov	r1, #8	; 0x8
    1f74:	e5940000 	ldr	r0, [r4]
    1f78:	ebfffee4 	bl	1b10 <RdPktEp3>
    1f7c:	e59f30ec 	ldr	r3, [pc, #236]	; 2070 <Ep3Handler+0x184>
    1f80:	e5933000 	ldr	r3, [r3]
    1f84:	e3530000 	cmp	r3, #0	; 0x0
    1f88:	059f30e4 	ldreq	r3, [pc, #228]	; 2074 <Ep3Handler+0x188>
    1f8c:	05932000 	ldreq	r2, [r3]
    1f90:	059f30e0 	ldreq	r3, [pc, #224]	; 2078 <Ep3Handler+0x18c>
    1f94:	05832000 	streq	r2, [r3]
    1f98:	0a000009 	beq	1fc4 <Ep3Handler+0xd8>
    1f9c:	e5942000 	ldr	r2, [r4]
    1fa0:	e5d23000 	ldrb	r3, [r2]
    1fa4:	e5d21001 	ldrb	r1, [r2, #1]
    1fa8:	e5d20002 	ldrb	r0, [r2, #2]
    1fac:	e0833401 	add	r3, r3, r1, lsl #8
    1fb0:	e5d22003 	ldrb	r2, [r2, #3]
    1fb4:	e0833800 	add	r3, r3, r0, lsl #16
    1fb8:	e0833c02 	add	r3, r3, r2, lsl #24
    1fbc:	e59f20b4 	ldr	r2, [pc, #180]	; 2078 <Ep3Handler+0x18c>
    1fc0:	e5823000 	str	r3, [r2]
    1fc4:	e59f409c 	ldr	r4, [pc, #156]	; 2068 <Ep3Handler+0x17c>
    1fc8:	e5942000 	ldr	r2, [r4]
    1fcc:	e5d21005 	ldrb	r1, [r2, #5]
    1fd0:	e5d23004 	ldrb	r3, [r2, #4]
    1fd4:	e5d20006 	ldrb	r0, [r2, #6]
    1fd8:	e0833401 	add	r3, r3, r1, lsl #8
    1fdc:	e5d22007 	ldrb	r2, [r2, #7]
    1fe0:	e0833800 	add	r3, r3, r0, lsl #16
    1fe4:	e0833c02 	add	r3, r3, r2, lsl #24
    1fe8:	e59f2074 	ldr	r2, [pc, #116]	; 2064 <Ep3Handler+0x178>
    1fec:	e2461008 	sub	r1, r6, #8	; 0x8
    1ff0:	e5823000 	str	r3, [r2]
    1ff4:	e59f3080 	ldr	r3, [pc, #128]	; 207c <Ep3Handler+0x190>
    1ff8:	e3a02000 	mov	r2, #0	; 0x0
    1ffc:	e1c320b0 	strh	r2, [r3]
    2000:	e59f3070 	ldr	r3, [pc, #112]	; 2078 <Ep3Handler+0x18c>
    2004:	e5933000 	ldr	r3, [r3]
    2008:	e1a00003 	mov	r0, r3
    200c:	e5843000 	str	r3, [r4]
    2010:	eb000030 	bl	20d8 <Ep3Handler+0x1ec>
    2014:	e59f1064 	ldr	r1, [pc, #100]	; 2080 <Ep3Handler+0x194>
    2018:	e5943000 	ldr	r3, [r4]
    201c:	e5912000 	ldr	r2, [r1]
    2020:	e0833006 	add	r3, r3, r6
    2024:	e2433008 	sub	r3, r3, #8	; 0x8
    2028:	e3822402 	orr	r2, r2, #33554432	; 0x2000000
    202c:	e5843000 	str	r3, [r4]
    2030:	e5812000 	str	r2, [r1]
    2034:	e91ba8f0 	ldmdb	fp, {r4, r5, r6, r7, fp, sp, pc}
    2038:	e3150040 	tst	r5, #64	; 0x40
    203c:	091ba8f0 	ldmeqdb	fp, {r4, r5, r6, r7, fp, sp, pc}
    2040:	e59f003c 	ldr	r0, [pc, #60]	; 2084 <Ep3Handler+0x198>
    2044:	ebffffa5 	bl	1ee0 <DbgPrintf>
    2048:	e205300f 	and	r3, r5, #15	; 0xf
    204c:	e5c73000 	strb	r3, [r7]
    2050:	e91ba8f0 	ldmdb	fp, {r4, r5, r6, r7, fp, sp, pc}
    2054:	52000178 	andpl	r0, r0, #30	; 0x1e
    2058:	52000190 	andpl	r0, r0, #36	; 0x24
    205c:	00005050 	andeq	r5, r0, r0, asr r0
    2060:	52000198 	andpl	r0, r0, #38	; 0x26
    2064:	32000044 	andcc	r0, r0, #68	; 0x44
    2068:	32000040 	andcc	r0, r0, #64	; 0x40
    206c:	00005058 	andeq	r5, r0, r8, asr r0
    2070:	32000010 	andcc	r0, r0, #16	; 0x10
    2074:	32000054 	andcc	r0, r0, #84	; 0x54
    2078:	32000038 	andcc	r0, r0, #56	; 0x38
    207c:	32000048 	andcc	r0, r0, #72	; 0x48
    2080:	4a000008 	bmi	20a8 <Ep3Handler+0x1bc>
    2084:	00005060 	andeq	r5, r0, r0, rrx
    2088:	e1a0c00d 	mov	ip, sp
    208c:	e92dd870 	stmdb	sp!, {r4, r5, r6, fp, ip, lr, pc}
    2090:	e1a05001 	mov	r5, r1
    2094:	e1a06000 	mov	r6, r0
    2098:	e3a04000 	mov	r4, #0	; 0x0
    209c:	e59f0028 	ldr	r0, [pc, #40]	; 20cc <Ep3Handler+0x1e0>
    20a0:	e24cb004 	sub	fp, ip, #4	; 0x4
    20a4:	ea000002 	b	20b4 <Ep3Handler+0x1c8>
    20a8:	e7d61004 	ldrb	r1, [r6, r4]
    20ac:	e59f001c 	ldr	r0, [pc, #28]	; 20d0 <Ep3Handler+0x1e4>
    20b0:	e2844001 	add	r4, r4, #1	; 0x1
    20b4:	ebffff89 	bl	1ee0 <DbgPrintf>
    20b8:	e1540005 	cmp	r4, r5
    20bc:	bafffff9 	blt	20a8 <Ep3Handler+0x1bc>
    20c0:	e59f000c 	ldr	r0, [pc, #12]	; 20d4 <Ep3Handler+0x1e8>
    20c4:	e91b6870 	ldmdb	fp, {r4, r5, r6, fp, sp, lr}
    20c8:	eaffff84 	b	1ee0 <DbgPrintf>
    20cc:	00005068 	andeq	r5, r0, r8, rrx
    20d0:	00005074 	andeq	r5, r0, r4, ror r0
    20d4:	00005078 	andeq	r5, r0, r8, ror r0
    20d8:	e52de004 	str	lr, [sp, -#4]!
    20dc:	e3a0c000 	mov	ip, #0	; 0x0
    20e0:	e1a0e001 	mov	lr, r1
    20e4:	e15c000e 	cmp	ip, lr
    20e8:	a49df004 	ldrge	pc, [sp], #4
    20ec:	e59f3028 	ldr	r3, [pc, #40]	; 211c <Ep3Handler+0x230>
    20f0:	e59f1028 	ldr	r1, [pc, #40]	; 2120 <Ep3Handler+0x234>
    20f4:	e5d33000 	ldrb	r3, [r3]
    20f8:	e7c0300c 	strb	r3, [r0, ip]
    20fc:	e7d0200c 	ldrb	r2, [r0, ip]
    2100:	e1d130b0 	ldrh	r3, [r1]
    2104:	e28cc001 	add	ip, ip, #1	; 0x1
    2108:	e0833002 	add	r3, r3, r2
    210c:	e15c000e 	cmp	ip, lr
    2110:	e1c130b0 	strh	r3, [r1]
    2114:	bafffff4 	blt	20ec <Ep3Handler+0x200>
    2118:	e49df004 	ldr	pc, [sp], #4
    211c:	520001cc 	andpl	r0, r0, #51	; 0x33
    2120:	32000048 	andcc	r0, r0, #72	; 0x48

00002124 <IsrDma2>:
    2124:	e1a0c00d 	mov	ip, sp
    2128:	e92dd870 	stmdb	sp!, {r4, r5, r6, fp, ip, lr, pc}
    212c:	e59f229c 	ldr	r2, [pc, #668]	; 23d0 <IsrDma2+0x2ac>
    2130:	e59f129c 	ldr	r1, [pc, #668]	; 23d4 <IsrDma2+0x2b0>
    2134:	e3a03003 	mov	r3, #3	; 0x3
    2138:	e59f5298 	ldr	r5, [pc, #664]	; 23d8 <IsrDma2+0x2b4>
    213c:	e5d20000 	ldrb	r0, [r2]
    2140:	e24cb004 	sub	fp, ip, #4	; 0x4
    2144:	e5c23000 	strb	r3, [r2]
    2148:	e59fc28c 	ldr	ip, [pc, #652]	; 23dc <IsrDma2+0x2b8>
    214c:	e3a02702 	mov	r2, #524288	; 0x80000
    2150:	e3a0344a 	mov	r3, #1241513984	; 0x4a000000
    2154:	e5d54000 	ldrb	r4, [r5]
    2158:	e5832000 	str	r2, [r3]
    215c:	e5812000 	str	r2, [r1]
    2160:	e5913000 	ldr	r3, [r1]
    2164:	e59c3000 	ldr	r3, [ip]
    2168:	e59f1270 	ldr	r1, [pc, #624]	; 23e0 <IsrDma2+0x2bc>
    216c:	e0833002 	add	r3, r3, r2
    2170:	e58c3000 	str	r3, [ip]
    2174:	e59c2000 	ldr	r2, [ip]
    2178:	e5913000 	ldr	r3, [r1]
    217c:	e20060ff 	and	r6, r0, #255	; 0xff
    2180:	e1520003 	cmp	r2, r3
    2184:	3a00000f 	bcc	21c8 <IsrDma2+0xa4>
    2188:	e5913000 	ldr	r3, [r1]
    218c:	e58c3000 	str	r3, [ip]
    2190:	ebfffea8 	bl	1c38 <ConfigEp3IntMode>
    2194:	e3140001 	tst	r4, #1	; 0x1
    2198:	1204304e 	andne	r3, r4, #78	; 0x4e
    219c:	15c53000 	strneb	r3, [r5]
    21a0:	e59f323c 	ldr	r3, [pc, #572]	; 23e4 <IsrDma2+0x2c0>
    21a4:	e5932000 	ldr	r2, [r3]
    21a8:	e3822702 	orr	r2, r2, #524288	; 0x80000
    21ac:	e5832000 	str	r2, [r3]
    21b0:	e5932000 	ldr	r2, [r3]
    21b4:	e3c22402 	bic	r2, r2, #33554432	; 0x2000000
    21b8:	e5832000 	str	r2, [r3]
    21bc:	e59f320c 	ldr	r3, [pc, #524]	; 23d0 <IsrDma2+0x2ac>
    21c0:	e5c36000 	strb	r6, [r3]
    21c4:	e91ba870 	ldmdb	fp, {r4, r5, r6, fp, sp, pc}
    21c8:	e59c3000 	ldr	r3, [ip]
    21cc:	e5912000 	ldr	r2, [r1]
    21d0:	e2833702 	add	r3, r3, #524288	; 0x80000
    21d4:	e1530002 	cmp	r3, r2
    21d8:	2a000066 	bcs	2378 <IsrDma2+0x254>
    21dc:	e59c3000 	ldr	r3, [ip]
    21e0:	e5912000 	ldr	r2, [r1]
    21e4:	e2830702 	add	r0, r3, #524288	; 0x80000
    21e8:	e2803702 	add	r3, r0, #524288	; 0x80000
    21ec:	e1530002 	cmp	r3, r2
    21f0:	2a00002e 	bcs	22b0 <IsrDma2+0x18c>
    21f4:	e59f31ec 	ldr	r3, [pc, #492]	; 23e8 <IsrDma2+0x2c4>
    21f8:	e5933000 	ldr	r3, [r3]
    21fc:	e3c334ff 	bic	r3, r3, #-16777216	; 0xff000000
    2200:	e3c3360f 	bic	r3, r3, #15728640	; 0xf00000
    2204:	e3530000 	cmp	r3, #0	; 0x0
    2208:	0afffff9 	beq	21f4 <IsrDma2+0xd0>
    220c:	e59f31d8 	ldr	r3, [pc, #472]	; 23ec <IsrDma2+0x2c8>
    2210:	e59f21d8 	ldr	r2, [pc, #472]	; 23f0 <IsrDma2+0x2cc>
    2214:	e5933000 	ldr	r3, [r3]
    2218:	e59f11d4 	ldr	r1, [pc, #468]	; 23f4 <IsrDma2+0x2d0>
    221c:	e0833000 	add	r3, r3, r0
    2220:	e2433008 	sub	r3, r3, #8	; 0x8
    2224:	e5823000 	str	r3, [r2]
    2228:	e59f31c8 	ldr	r3, [pc, #456]	; 23f8 <IsrDma2+0x2d4>
    222c:	e3a02000 	mov	r2, #0	; 0x0
    2230:	e5832000 	str	r2, [r3]
    2234:	e5913000 	ldr	r3, [r1]
    2238:	e1a03a23 	mov	r3, r3, lsr #20
    223c:	e1a03a03 	mov	r3, r3, lsl #20
    2240:	e3833702 	orr	r3, r3, #524288	; 0x80000
    2244:	e5813000 	str	r3, [r1]
    2248:	e59f31ac 	ldr	r3, [pc, #428]	; 23fc <IsrDma2+0x2d8>
    224c:	e4d32004 	ldrb	r2, [r3], #4
    2250:	e4d31004 	ldrb	r1, [r3], #4
    2254:	e5d33000 	ldrb	r3, [r3]
    2258:	e0822401 	add	r2, r2, r1, lsl #8
    225c:	e0822803 	add	r2, r2, r3, lsl #16
    2260:	e59f3198 	ldr	r3, [pc, #408]	; 2400 <IsrDma2+0x2dc>
    2264:	e1520003 	cmp	r2, r3
    2268:	caffffd3 	bgt	21bc <IsrDma2+0x98>
    226c:	e59f2188 	ldr	r2, [pc, #392]	; 23fc <IsrDma2+0x2d8>
    2270:	e59f118c 	ldr	r1, [pc, #396]	; 2404 <IsrDma2+0x2e0>
    2274:	e3a030ff 	mov	r3, #255	; 0xff
    2278:	e59f0188 	ldr	r0, [pc, #392]	; 2408 <IsrDma2+0x2e4>
    227c:	e5c23000 	strb	r3, [r2]
    2280:	e5c13000 	strb	r3, [r1]
    2284:	e24330f0 	sub	r3, r3, #240	; 0xf0
    2288:	e5c03000 	strb	r3, [r0]
    228c:	e5d23000 	ldrb	r3, [r2]
    2290:	e5d12000 	ldrb	r2, [r1]
    2294:	e5d01000 	ldrb	r1, [r0]
    2298:	e0833402 	add	r3, r3, r2, lsl #8
    229c:	e59f215c 	ldr	r2, [pc, #348]	; 2400 <IsrDma2+0x2dc>
    22a0:	e0833801 	add	r3, r3, r1, lsl #16
    22a4:	e1530002 	cmp	r3, r2
    22a8:	daffffef 	ble	226c <IsrDma2+0x148>
    22ac:	eaffffc2 	b	21bc <IsrDma2+0x98>
    22b0:	e59f3130 	ldr	r3, [pc, #304]	; 23e8 <IsrDma2+0x2c4>
    22b4:	e5933000 	ldr	r3, [r3]
    22b8:	e3c334ff 	bic	r3, r3, #-16777216	; 0xff000000
    22bc:	e3c3360f 	bic	r3, r3, #15728640	; 0xf00000
    22c0:	e3530000 	cmp	r3, #0	; 0x0
    22c4:	0afffff9 	beq	22b0 <IsrDma2+0x18c>
    22c8:	e59f311c 	ldr	r3, [pc, #284]	; 23ec <IsrDma2+0x2c8>
    22cc:	e59f211c 	ldr	r2, [pc, #284]	; 23f0 <IsrDma2+0x2cc>
    22d0:	e5933000 	ldr	r3, [r3]
    22d4:	e59f1118 	ldr	r1, [pc, #280]	; 23f4 <IsrDma2+0x2d0>
    22d8:	e0833000 	add	r3, r3, r0
    22dc:	e2433008 	sub	r3, r3, #8	; 0x8
    22e0:	e5823000 	str	r3, [r2]
    22e4:	e59f310c 	ldr	r3, [pc, #268]	; 23f8 <IsrDma2+0x2d4>
    22e8:	e3a02000 	mov	r2, #0	; 0x0
    22ec:	e5832000 	str	r2, [r3]
    22f0:	e59f20e8 	ldr	r2, [pc, #232]	; 23e0 <IsrDma2+0x2bc>
    22f4:	e5913000 	ldr	r3, [r1]
    22f8:	e5922000 	ldr	r2, [r2]
    22fc:	e1a03a23 	mov	r3, r3, lsr #20
    2300:	e0602002 	rsb	r2, r0, r2
    2304:	e1a03a03 	mov	r3, r3, lsl #20
    2308:	e1833002 	orr	r3, r3, r2
    230c:	e5813000 	str	r3, [r1]
    2310:	e59f30e4 	ldr	r3, [pc, #228]	; 23fc <IsrDma2+0x2d8>
    2314:	e4d32004 	ldrb	r2, [r3], #4
    2318:	e4d31004 	ldrb	r1, [r3], #4
    231c:	e5d33000 	ldrb	r3, [r3]
    2320:	e0822401 	add	r2, r2, r1, lsl #8
    2324:	e0822803 	add	r2, r2, r3, lsl #16
    2328:	e59f30d0 	ldr	r3, [pc, #208]	; 2400 <IsrDma2+0x2dc>
    232c:	e1520003 	cmp	r2, r3
    2330:	caffffa1 	bgt	21bc <IsrDma2+0x98>
    2334:	e59f20c0 	ldr	r2, [pc, #192]	; 23fc <IsrDma2+0x2d8>
    2338:	e59f10c4 	ldr	r1, [pc, #196]	; 2404 <IsrDma2+0x2e0>
    233c:	e3a030ff 	mov	r3, #255	; 0xff
    2340:	e59f00c0 	ldr	r0, [pc, #192]	; 2408 <IsrDma2+0x2e4>
    2344:	e5c23000 	strb	r3, [r2]
    2348:	e5c13000 	strb	r3, [r1]
    234c:	e24330f0 	sub	r3, r3, #240	; 0xf0
    2350:	e5c03000 	strb	r3, [r0]
    2354:	e5d23000 	ldrb	r3, [r2]
    2358:	e5d12000 	ldrb	r2, [r1]
    235c:	e5d01000 	ldrb	r1, [r0]
    2360:	e0833402 	add	r3, r3, r2, lsl #8
    2364:	e59f2094 	ldr	r2, [pc, #148]	; 2400 <IsrDma2+0x2dc>
    2368:	e0833801 	add	r3, r3, r1, lsl #16
    236c:	e1530002 	cmp	r3, r2
    2370:	daffffef 	ble	2334 <IsrDma2+0x210>
    2374:	eaffff90 	b	21bc <IsrDma2+0x98>
    2378:	e59f3068 	ldr	r3, [pc, #104]	; 23e8 <IsrDma2+0x2c4>
    237c:	e5933000 	ldr	r3, [r3]
    2380:	e3c334ff 	bic	r3, r3, #-16777216	; 0xff000000
    2384:	e3c3360f 	bic	r3, r3, #15728640	; 0xf00000
    2388:	e3530000 	cmp	r3, #0	; 0x0
    238c:	0afffff9 	beq	2378 <IsrDma2+0x254>
    2390:	e59f3054 	ldr	r3, [pc, #84]	; 23ec <IsrDma2+0x2c8>
    2394:	e59f1058 	ldr	r1, [pc, #88]	; 23f4 <IsrDma2+0x2d0>
    2398:	e5932000 	ldr	r2, [r3]
    239c:	e59f303c 	ldr	r3, [pc, #60]	; 23e0 <IsrDma2+0x2bc>
    23a0:	e5933000 	ldr	r3, [r3]
    23a4:	e0822003 	add	r2, r2, r3
    23a8:	e59f3040 	ldr	r3, [pc, #64]	; 23f0 <IsrDma2+0x2cc>
    23ac:	e2422008 	sub	r2, r2, #8	; 0x8
    23b0:	e4832004 	str	r2, [r3], #4
    23b4:	e3a02000 	mov	r2, #0	; 0x0
    23b8:	e5832000 	str	r2, [r3]
    23bc:	e5913000 	ldr	r3, [r1]
    23c0:	e1a03a23 	mov	r3, r3, lsr #20
    23c4:	e1a03a03 	mov	r3, r3, lsl #20
    23c8:	e5813000 	str	r3, [r1]
    23cc:	eaffff7a 	b	21bc <IsrDma2+0x98>
    23d0:	52000178 	andpl	r0, r0, #30	; 0x1e
    23d4:	4a000010 	bmi	241c <ClearEp3OutPktReady+0x10>
    23d8:	52000190 	andpl	r0, r0, #36	; 0x24
    23dc:	3200004c 	andcc	r0, r0, #76	; 0x4c
    23e0:	32000044 	andcc	r0, r0, #68	; 0x44
    23e4:	4a000008 	bmi	240c <ClearEp3OutPktReady>
    23e8:	4b000094 	blmi	2640 <Ep0Handler+0x20c>
    23ec:	32000038 	andcc	r0, r0, #56	; 0x38
    23f0:	4b000088 	blmi	2618 <Ep0Handler+0x1e4>
    23f4:	4b000090 	blmi	263c <Ep0Handler+0x208>
    23f8:	4b00008c 	blmi	2630 <Ep0Handler+0x1fc>
    23fc:	5200024c 	andpl	r0, r0, #-1073741820	; 0xc0000004
    2400:	000ffffe 	streqd	pc, [pc], -lr
    2404:	52000250 	andpl	r0, r0, #5	; 0x5
    2408:	52000254 	andpl	r0, r0, #1073741829	; 0x40000005

0000240c <ClearEp3OutPktReady>:
    240c:	e59f3018 	ldr	r3, [pc, #24]	; 242c <ClearEp3OutPktReady+0x20>
    2410:	e59f1018 	ldr	r1, [pc, #24]	; 2430 <ClearEp3OutPktReady+0x24>
    2414:	e3a02003 	mov	r2, #3	; 0x3
    2418:	e5c32000 	strb	r2, [r3]
    241c:	e5d13000 	ldrb	r3, [r1]
    2420:	e203304e 	and	r3, r3, #78	; 0x4e
    2424:	e5c13000 	strb	r3, [r1]
    2428:	e1a0f00e 	mov	pc, lr
    242c:	52000178 	andpl	r0, r0, #30	; 0x1e
    2430:	52000190 	andpl	r0, r0, #36	; 0x24

00002434 <Ep0Handler>:
    2434:	e1a0c00d 	mov	ip, sp
    2438:	e92dd8f0 	stmdb	sp!, {r4, r5, r6, r7, fp, ip, lr, pc}
    243c:	e59f3b20 	ldr	r3, [pc, #2848]	; 2f64 <Ep0Handler+0xb30>
    2440:	e3a02000 	mov	r2, #0	; 0x0
    2444:	e59f6b1c 	ldr	r6, [pc, #2844]	; 2f68 <Ep0Handler+0xb34>
    2448:	e5c32000 	strb	r2, [r3]
    244c:	e5d64000 	ldrb	r4, [r6]
    2450:	e59f0b14 	ldr	r0, [pc, #2836]	; 2f6c <Ep0Handler+0xb38>
    2454:	e20450ff 	and	r5, r4, #255	; 0xff
    2458:	e1a01005 	mov	r1, r5
    245c:	e24cb004 	sub	fp, ip, #4	; 0x4
    2460:	ebfffe9e 	bl	1ee0 <DbgPrintf>
    2464:	e2147010 	ands	r7, r4, #16	; 0x10
    2468:	0a000016 	beq	24c8 <Ep0Handler+0x94>
    246c:	e59f0afc 	ldr	r0, [pc, #2812]	; 2f70 <Ep0Handler+0xb3c>
    2470:	ebfffe9a 	bl	1ee0 <DbgPrintf>
    2474:	e204303f 	and	r3, r4, #63	; 0x3f
    2478:	e1e03c83 	mvn	r3, r3, lsl #25
    247c:	e1e03ca3 	mvn	r3, r3, lsr #25
    2480:	e3140001 	tst	r4, #1	; 0x1
    2484:	e5c63000 	strb	r3, [r6]
    2488:	0a00000a 	beq	24b8 <Ep0Handler+0x84>
    248c:	e59f2ae0 	ldr	r2, [pc, #2784]	; 2f74 <Ep0Handler+0xb40>
    2490:	ea000001 	b	249c <Ep0Handler+0x68>
    2494:	e59f3adc 	ldr	r3, [pc, #2780]	; 2f78 <Ep0Handler+0xb44>
    2498:	e5d33000 	ldrb	r3, [r3]
    249c:	e5d23000 	ldrb	r3, [r2]
    24a0:	e3530000 	cmp	r3, #0	; 0x0
    24a4:	1afffffa 	bne	2494 <Ep0Handler+0x60>
    24a8:	e205303f 	and	r3, r5, #63	; 0x3f
    24ac:	e59f2ab4 	ldr	r2, [pc, #2740]	; 2f68 <Ep0Handler+0xb34>
    24b0:	e3833040 	orr	r3, r3, #64	; 0x40
    24b4:	e5c23000 	strb	r3, [r2]
    24b8:	e59f3abc 	ldr	r3, [pc, #2748]	; 2f7c <Ep0Handler+0xb48>
    24bc:	e3a02000 	mov	r2, #0	; 0x0
    24c0:	e5832000 	str	r2, [r3]
    24c4:	e91ba8f0 	ldmdb	fp, {r4, r5, r6, r7, fp, sp, pc}
    24c8:	e3140004 	tst	r4, #4	; 0x4
    24cc:	0a00000a 	beq	24fc <Ep0Handler+0xc8>
    24d0:	e59f0aa8 	ldr	r0, [pc, #2728]	; 2f80 <Ep0Handler+0xb4c>
    24d4:	ebfffe81 	bl	1ee0 <DbgPrintf>
    24d8:	e204303b 	and	r3, r4, #59	; 0x3b
    24dc:	e3140001 	tst	r4, #1	; 0x1
    24e0:	e5c63000 	strb	r3, [r6]
    24e4:	1204303f 	andne	r3, r4, #63	; 0x3f
    24e8:	13833040 	orrne	r3, r3, #64	; 0x40
    24ec:	15c63000 	strneb	r3, [r6]
    24f0:	e59f3a84 	ldr	r3, [pc, #2692]	; 2f7c <Ep0Handler+0xb48>
    24f4:	e5837000 	str	r7, [r3]
    24f8:	e91ba8f0 	ldmdb	fp, {r4, r5, r6, r7, fp, sp, pc}
    24fc:	e3140001 	tst	r4, #1	; 0x1
    2500:	0a000003 	beq	2514 <Ep0Handler+0xe0>
    2504:	e59f3a70 	ldr	r3, [pc, #2672]	; 2f7c <Ep0Handler+0xb48>
    2508:	e5933000 	ldr	r3, [r3]
    250c:	e3530000 	cmp	r3, #0	; 0x0
    2510:	0a00015d 	beq	2a8c <Ep0Handler+0x658>
    2514:	e59f3a60 	ldr	r3, [pc, #2656]	; 2f7c <Ep0Handler+0xb48>
    2518:	e5933000 	ldr	r3, [r3]
    251c:	e353002e 	cmp	r3, #46	; 0x2e
    2520:	979ff103 	ldrls	pc, [pc, r3, lsl #2]
    2524:	ea0000ed 	b	28e0 <Ep0Handler+0x4ac>
    2528:	00002614 	andeq	r2, r0, r4, lsl r6
    252c:	000028e0 	andeq	r2, r0, r0, ror #17
    2530:	000028e0 	andeq	r2, r0, r0, ror #17
    2534:	000028e0 	andeq	r2, r0, r0, ror #17
    2538:	000028e0 	andeq	r2, r0, r0, ror #17
    253c:	000028e0 	andeq	r2, r0, r0, ror #17
    2540:	000028e0 	andeq	r2, r0, r0, ror #17
    2544:	000028e0 	andeq	r2, r0, r0, ror #17
    2548:	000028e0 	andeq	r2, r0, r0, ror #17
    254c:	000028e0 	andeq	r2, r0, r0, ror #17
    2550:	000025e4 	andeq	r2, r0, r4, ror #11
    2554:	00002618 	andeq	r2, r0, r8, lsl r6
    2558:	0000264c 	andeq	r2, r0, ip, asr #12
    255c:	000028e0 	andeq	r2, r0, r0, ror #17
    2560:	000028e0 	andeq	r2, r0, r0, ror #17
    2564:	000028e0 	andeq	r2, r0, r0, ror #17
    2568:	000028e0 	andeq	r2, r0, r0, ror #17
    256c:	000028e0 	andeq	r2, r0, r0, ror #17
    2570:	000028e0 	andeq	r2, r0, r0, ror #17
    2574:	000028e0 	andeq	r2, r0, r0, ror #17
    2578:	00002670 	andeq	r2, r0, r0, ror r6
    257c:	000026a4 	andeq	r2, r0, r4, lsr #13
    2580:	000026e4 	andeq	r2, r0, r4, ror #13
    2584:	00002724 	andeq	r2, r0, r4, lsr #14
    2588:	00002764 	andeq	r2, r0, r4, ror #14
    258c:	000028e0 	andeq	r2, r0, r0, ror #17
    2590:	000028e0 	andeq	r2, r0, r0, ror #17
    2594:	000028e0 	andeq	r2, r0, r0, ror #17
    2598:	000028e0 	andeq	r2, r0, r0, ror #17
    259c:	000028e0 	andeq	r2, r0, r0, ror #17
    25a0:	0000277c 	andeq	r2, r0, ip, ror r7
    25a4:	000027b8 	streqh	r2, [r0], -r8
    25a8:	0000284c 	andeq	r2, r0, ip, asr #16
    25ac:	000028c4 	andeq	r2, r0, r4, asr #17
    25b0:	000028e0 	andeq	r2, r0, r0, ror #17
    25b4:	000028ec 	andeq	r2, r0, ip, ror #17
    25b8:	00002908 	andeq	r2, r0, r8, lsl #18
    25bc:	00002924 	andeq	r2, r0, r4, lsr #18
    25c0:	00002940 	andeq	r2, r0, r0, asr #18
    25c4:	0000295c 	andeq	r2, r0, ip, asr r9
    25c8:	00002978 	andeq	r2, r0, r8, ror r9
    25cc:	000029ac 	andeq	r2, r0, ip, lsr #19
    25d0:	000029d0 	ldreqd	r2, [r0], -r0
    25d4:	00002a04 	andeq	r2, r0, r4, lsl #20
    25d8:	00002a28 	andeq	r2, r0, r8, lsr #20
    25dc:	00002a4c 	andeq	r2, r0, ip, asr #20
    25e0:	00002a70 	andeq	r2, r0, r0, ror sl
    25e4:	e59f0998 	ldr	r0, [pc, #2456]	; 2f84 <Ep0Handler+0xb50>
    25e8:	ebfffe3c 	bl	1ee0 <DbgPrintf>
    25ec:	e3a01008 	mov	r1, #8	; 0x8
    25f0:	e59f0990 	ldr	r0, [pc, #2448]	; 2f88 <Ep0Handler+0xb54>
    25f4:	ebfffd1f 	bl	1a78 <WrPktEp0>
    25f8:	e59f2968 	ldr	r2, [pc, #2408]	; 2f68 <Ep0Handler+0xb34>
    25fc:	e205303f 	and	r3, r5, #63	; 0x3f
    2600:	e3833002 	orr	r3, r3, #2	; 0x2
    2604:	e5c23000 	strb	r3, [r2]
    2608:	e59f396c 	ldr	r3, [pc, #2412]	; 2f7c <Ep0Handler+0xb48>
    260c:	e3a0200b 	mov	r2, #11	; 0xb
    2610:	e5832000 	str	r2, [r3]
    2614:	e91ba8f0 	ldmdb	fp, {r4, r5, r6, r7, fp, sp, pc}
    2618:	e59f096c 	ldr	r0, [pc, #2412]	; 2f8c <Ep0Handler+0xb58>
    261c:	ebfffe2f 	bl	1ee0 <DbgPrintf>
    2620:	e3a01008 	mov	r1, #8	; 0x8
    2624:	e59f0964 	ldr	r0, [pc, #2404]	; 2f90 <Ep0Handler+0xb5c>
    2628:	ebfffd12 	bl	1a78 <WrPktEp0>
    262c:	e59f2934 	ldr	r2, [pc, #2356]	; 2f68 <Ep0Handler+0xb34>
    2630:	e205303f 	and	r3, r5, #63	; 0x3f
    2634:	e3833002 	orr	r3, r3, #2	; 0x2
    2638:	e5c23000 	strb	r3, [r2]
    263c:	e59f3938 	ldr	r3, [pc, #2360]	; 2f7c <Ep0Handler+0xb48>
    2640:	e3a0200c 	mov	r2, #12	; 0xc
    2644:	e5832000 	str	r2, [r3]
    2648:	e91ba8f0 	ldmdb	fp, {r4, r5, r6, r7, fp, sp, pc}
    264c:	e59f0940 	ldr	r0, [pc, #2368]	; 2f94 <Ep0Handler+0xb60>
    2650:	ebfffe22 	bl	1ee0 <DbgPrintf>
    2654:	e3a01002 	mov	r1, #2	; 0x2
    2658:	e59f0938 	ldr	r0, [pc, #2360]	; 2f98 <Ep0Handler+0xb64>
    265c:	ebfffd05 	bl	1a78 <WrPktEp0>
    2660:	e59f2900 	ldr	r2, [pc, #2304]	; 2f68 <Ep0Handler+0xb34>
    2664:	e205303f 	and	r3, r5, #63	; 0x3f
    2668:	e383300a 	orr	r3, r3, #10	; 0xa
    266c:	eaffff90 	b	24b4 <Ep0Handler+0x80>
    2670:	e59f0924 	ldr	r0, [pc, #2340]	; 2f9c <Ep0Handler+0xb68>
    2674:	ebfffe19 	bl	1ee0 <DbgPrintf>
    2678:	e3a01008 	mov	r1, #8	; 0x8
    267c:	e59f091c 	ldr	r0, [pc, #2332]	; 2fa0 <Ep0Handler+0xb6c>
    2680:	ebfffcfc 	bl	1a78 <WrPktEp0>
    2684:	e59f28dc 	ldr	r2, [pc, #2268]	; 2f68 <Ep0Handler+0xb34>
    2688:	e205303f 	and	r3, r5, #63	; 0x3f
    268c:	e3833002 	orr	r3, r3, #2	; 0x2
    2690:	e5c23000 	strb	r3, [r2]
    2694:	e59f38e0 	ldr	r3, [pc, #2272]	; 2f7c <Ep0Handler+0xb48>
    2698:	e3a02015 	mov	r2, #21	; 0x15
    269c:	e5832000 	str	r2, [r3]
    26a0:	e91ba8f0 	ldmdb	fp, {r4, r5, r6, r7, fp, sp, pc}
    26a4:	e59f08f8 	ldr	r0, [pc, #2296]	; 2fa4 <Ep0Handler+0xb70>
    26a8:	ebfffe0c 	bl	1ee0 <DbgPrintf>
    26ac:	e3a01001 	mov	r1, #1	; 0x1
    26b0:	e59f08f0 	ldr	r0, [pc, #2288]	; 2fa8 <Ep0Handler+0xb74>
    26b4:	ebfffcef 	bl	1a78 <WrPktEp0>
    26b8:	e3a01007 	mov	r1, #7	; 0x7
    26bc:	e59f08e8 	ldr	r0, [pc, #2280]	; 2fac <Ep0Handler+0xb78>
    26c0:	ebfffcec 	bl	1a78 <WrPktEp0>
    26c4:	e59f289c 	ldr	r2, [pc, #2204]	; 2f68 <Ep0Handler+0xb34>
    26c8:	e205303f 	and	r3, r5, #63	; 0x3f
    26cc:	e3833002 	orr	r3, r3, #2	; 0x2
    26d0:	e5c23000 	strb	r3, [r2]
    26d4:	e59f38a0 	ldr	r3, [pc, #2208]	; 2f7c <Ep0Handler+0xb48>
    26d8:	e3a02016 	mov	r2, #22	; 0x16
    26dc:	e5832000 	str	r2, [r3]
    26e0:	e91ba8f0 	ldmdb	fp, {r4, r5, r6, r7, fp, sp, pc}
    26e4:	e59f08c4 	ldr	r0, [pc, #2244]	; 2fb0 <Ep0Handler+0xb7c>
    26e8:	ebfffdfc 	bl	1ee0 <DbgPrintf>
    26ec:	e3a01002 	mov	r1, #2	; 0x2
    26f0:	e59f08bc 	ldr	r0, [pc, #2236]	; 2fb4 <Ep0Handler+0xb80>
    26f4:	ebfffcdf 	bl	1a78 <WrPktEp0>
    26f8:	e3a01006 	mov	r1, #6	; 0x6
    26fc:	e59f08b4 	ldr	r0, [pc, #2228]	; 2fb8 <Ep0Handler+0xb84>
    2700:	ebfffcdc 	bl	1a78 <WrPktEp0>
    2704:	e59f285c 	ldr	r2, [pc, #2140]	; 2f68 <Ep0Handler+0xb34>
    2708:	e205303f 	and	r3, r5, #63	; 0x3f
    270c:	e3833002 	orr	r3, r3, #2	; 0x2
    2710:	e5c23000 	strb	r3, [r2]
    2714:	e59f3860 	ldr	r3, [pc, #2144]	; 2f7c <Ep0Handler+0xb48>
    2718:	e3a02017 	mov	r2, #23	; 0x17
    271c:	e5832000 	str	r2, [r3]
    2720:	e91ba8f0 	ldmdb	fp, {r4, r5, r6, r7, fp, sp, pc}
    2724:	e59f0890 	ldr	r0, [pc, #2192]	; 2fbc <Ep0Handler+0xb88>
    2728:	ebfffdec 	bl	1ee0 <DbgPrintf>
    272c:	e3a01001 	mov	r1, #1	; 0x1
    2730:	e59f0888 	ldr	r0, [pc, #2184]	; 2fc0 <Ep0Handler+0xb8c>
    2734:	ebfffccf 	bl	1a78 <WrPktEp0>
    2738:	e3a01007 	mov	r1, #7	; 0x7
    273c:	e59f0880 	ldr	r0, [pc, #2176]	; 2fc4 <Ep0Handler+0xb90>
    2740:	ebfffccc 	bl	1a78 <WrPktEp0>
    2744:	e59f281c 	ldr	r2, [pc, #2076]	; 2f68 <Ep0Handler+0xb34>
    2748:	e205303f 	and	r3, r5, #63	; 0x3f
    274c:	e3833002 	orr	r3, r3, #2	; 0x2
    2750:	e5c23000 	strb	r3, [r2]
    2754:	e59f3820 	ldr	r3, [pc, #2080]	; 2f7c <Ep0Handler+0xb48>
    2758:	e3a02018 	mov	r2, #24	; 0x18
    275c:	e5832000 	str	r2, [r3]
    2760:	e91ba8f0 	ldmdb	fp, {r4, r5, r6, r7, fp, sp, pc}
    2764:	e59f085c 	ldr	r0, [pc, #2140]	; 2fc8 <Ep0Handler+0xb94>
    2768:	ebfffddc 	bl	1ee0 <DbgPrintf>
    276c:	e59f27f4 	ldr	r2, [pc, #2036]	; 2f68 <Ep0Handler+0xb34>
    2770:	e205303f 	and	r3, r5, #63	; 0x3f
    2774:	e383300a 	orr	r3, r3, #10	; 0xa
    2778:	eaffff4d 	b	24b4 <Ep0Handler+0x80>
    277c:	e59f0848 	ldr	r0, [pc, #2120]	; 2fcc <Ep0Handler+0xb98>
    2780:	ebfffdd6 	bl	1ee0 <DbgPrintf>
    2784:	e3a01004 	mov	r1, #4	; 0x4
    2788:	e59f0840 	ldr	r0, [pc, #2112]	; 2fd0 <Ep0Handler+0xb9c>
    278c:	ebfffcb9 	bl	1a78 <WrPktEp0>
    2790:	e205303f 	and	r3, r5, #63	; 0x3f
    2794:	e59f27cc 	ldr	r2, [pc, #1996]	; 2f68 <Ep0Handler+0xb34>
    2798:	e383300a 	orr	r3, r3, #10	; 0xa
    279c:	e5c23000 	strb	r3, [r2]
    27a0:	e59f382c 	ldr	r3, [pc, #2092]	; 2fd4 <Ep0Handler+0xba0>
    27a4:	e3a01000 	mov	r1, #0	; 0x0
    27a8:	e5831000 	str	r1, [r3]
    27ac:	e59f37c8 	ldr	r3, [pc, #1992]	; 2f7c <Ep0Handler+0xb48>
    27b0:	e5831000 	str	r1, [r3]
    27b4:	e91ba8f0 	ldmdb	fp, {r4, r5, r6, r7, fp, sp, pc}
    27b8:	e59f4814 	ldr	r4, [pc, #2068]	; 2fd4 <Ep0Handler+0xba0>
    27bc:	e59f0814 	ldr	r0, [pc, #2068]	; 2fd8 <Ep0Handler+0xba4>
    27c0:	e5941000 	ldr	r1, [r4]
    27c4:	ebfffdc5 	bl	1ee0 <DbgPrintf>
    27c8:	e5943000 	ldr	r3, [r4]
    27cc:	e1a02183 	mov	r2, r3, lsl #3
    27d0:	e2823008 	add	r3, r2, #8	; 0x8
    27d4:	e3530015 	cmp	r3, #21	; 0x15
    27d8:	8a00000e 	bhi	2818 <Ep0Handler+0x3e4>
    27dc:	e59f07f8 	ldr	r0, [pc, #2040]	; 2fdc <Ep0Handler+0xba8>
    27e0:	e3a01008 	mov	r1, #8	; 0x8
    27e4:	e0820000 	add	r0, r2, r0
    27e8:	ebfffca2 	bl	1a78 <WrPktEp0>
    27ec:	e59f2774 	ldr	r2, [pc, #1908]	; 2f68 <Ep0Handler+0xb34>
    27f0:	e205303f 	and	r3, r5, #63	; 0x3f
    27f4:	e5941000 	ldr	r1, [r4]
    27f8:	e3833002 	orr	r3, r3, #2	; 0x2
    27fc:	e5c23000 	strb	r3, [r2]
    2800:	e59f3774 	ldr	r3, [pc, #1908]	; 2f7c <Ep0Handler+0xb48>
    2804:	e2811001 	add	r1, r1, #1	; 0x1
    2808:	e3a0201f 	mov	r2, #31	; 0x1f
    280c:	e5832000 	str	r2, [r3]
    2810:	e5841000 	str	r1, [r4]
    2814:	e91ba8f0 	ldmdb	fp, {r4, r5, r6, r7, fp, sp, pc}
    2818:	e59f07bc 	ldr	r0, [pc, #1980]	; 2fdc <Ep0Handler+0xba8>
    281c:	e2621016 	rsb	r1, r2, #22	; 0x16
    2820:	e0820000 	add	r0, r2, r0
    2824:	ebfffc93 	bl	1a78 <WrPktEp0>
    2828:	e205303f 	and	r3, r5, #63	; 0x3f
    282c:	e59f2734 	ldr	r2, [pc, #1844]	; 2f68 <Ep0Handler+0xb34>
    2830:	e383300a 	orr	r3, r3, #10	; 0xa
    2834:	e5c23000 	strb	r3, [r2]
    2838:	e59f373c 	ldr	r3, [pc, #1852]	; 2f7c <Ep0Handler+0xb48>
    283c:	e3a01000 	mov	r1, #0	; 0x0
    2840:	e5841000 	str	r1, [r4]
    2844:	e5831000 	str	r1, [r3]
    2848:	e91ba8f0 	ldmdb	fp, {r4, r5, r6, r7, fp, sp, pc}
    284c:	e59f4780 	ldr	r4, [pc, #1920]	; 2fd4 <Ep0Handler+0xba0>
    2850:	e59f0788 	ldr	r0, [pc, #1928]	; 2fe0 <Ep0Handler+0xbac>
    2854:	e5941000 	ldr	r1, [r4]
    2858:	ebfffda0 	bl	1ee0 <DbgPrintf>
    285c:	e5943000 	ldr	r3, [r4]
    2860:	e1a02183 	mov	r2, r3, lsl #3
    2864:	e2823008 	add	r3, r2, #8	; 0x8
    2868:	e353002b 	cmp	r3, #43	; 0x2b
    286c:	8a00000c 	bhi	28a4 <Ep0Handler+0x470>
    2870:	e59f076c 	ldr	r0, [pc, #1900]	; 2fe4 <Ep0Handler+0xbb0>
    2874:	e3a01008 	mov	r1, #8	; 0x8
    2878:	e0820000 	add	r0, r2, r0
    287c:	ebfffc7d 	bl	1a78 <WrPktEp0>
    2880:	e59f26e0 	ldr	r2, [pc, #1760]	; 2f68 <Ep0Handler+0xb34>
    2884:	e205303f 	and	r3, r5, #63	; 0x3f
    2888:	e5941000 	ldr	r1, [r4]
    288c:	e3833002 	orr	r3, r3, #2	; 0x2
    2890:	e5c23000 	strb	r3, [r2]
    2894:	e59f36e0 	ldr	r3, [pc, #1760]	; 2f7c <Ep0Handler+0xb48>
    2898:	e2811001 	add	r1, r1, #1	; 0x1
    289c:	e3a02020 	mov	r2, #32	; 0x20
    28a0:	eaffffd9 	b	280c <Ep0Handler+0x3d8>
    28a4:	e59f073c 	ldr	r0, [pc, #1852]	; 2fe8 <Ep0Handler+0xbb4>
    28a8:	ebfffd8c 	bl	1ee0 <DbgPrintf>
    28ac:	e5941000 	ldr	r1, [r4]
    28b0:	e59f072c 	ldr	r0, [pc, #1836]	; 2fe4 <Ep0Handler+0xbb0>
    28b4:	e1a01181 	mov	r1, r1, lsl #3
    28b8:	e0810000 	add	r0, r1, r0
    28bc:	e261102c 	rsb	r1, r1, #44	; 0x2c
    28c0:	eaffffd7 	b	2824 <Ep0Handler+0x3f0>
    28c4:	e3a01001 	mov	r1, #1	; 0x1
    28c8:	e59f071c 	ldr	r0, [pc, #1820]	; 2fec <Ep0Handler+0xbb8>
    28cc:	ebfffc69 	bl	1a78 <WrPktEp0>
    28d0:	e59f2690 	ldr	r2, [pc, #1680]	; 2f68 <Ep0Handler+0xb34>
    28d4:	e205303f 	and	r3, r5, #63	; 0x3f
    28d8:	e383300a 	orr	r3, r3, #10	; 0xa
    28dc:	eafffef4 	b	24b4 <Ep0Handler+0x80>
    28e0:	e59f0708 	ldr	r0, [pc, #1800]	; 2ff0 <Ep0Handler+0xbbc>
    28e4:	ebfffd7d 	bl	1ee0 <DbgPrintf>
    28e8:	e91ba8f0 	ldmdb	fp, {r4, r5, r6, r7, fp, sp, pc}
    28ec:	e3a01001 	mov	r1, #1	; 0x1
    28f0:	e59f06fc 	ldr	r0, [pc, #1788]	; 2ff4 <Ep0Handler+0xbc0>
    28f4:	ebfffc5f 	bl	1a78 <WrPktEp0>
    28f8:	e59f2668 	ldr	r2, [pc, #1640]	; 2f68 <Ep0Handler+0xb34>
    28fc:	e205303f 	and	r3, r5, #63	; 0x3f
    2900:	e383300a 	orr	r3, r3, #10	; 0xa
    2904:	eafffeea 	b	24b4 <Ep0Handler+0x80>
    2908:	e3a01001 	mov	r1, #1	; 0x1
    290c:	e59f06e4 	ldr	r0, [pc, #1764]	; 2ff8 <Ep0Handler+0xbc4>
    2910:	ebfffc58 	bl	1a78 <WrPktEp0>
    2914:	e59f264c 	ldr	r2, [pc, #1612]	; 2f68 <Ep0Handler+0xb34>
    2918:	e205303f 	and	r3, r5, #63	; 0x3f
    291c:	e383300a 	orr	r3, r3, #10	; 0xa
    2920:	eafffee3 	b	24b4 <Ep0Handler+0x80>
    2924:	e3a01001 	mov	r1, #1	; 0x1
    2928:	e59f06cc 	ldr	r0, [pc, #1740]	; 2ffc <Ep0Handler+0xbc8>
    292c:	ebfffc51 	bl	1a78 <WrPktEp0>
    2930:	e59f2630 	ldr	r2, [pc, #1584]	; 2f68 <Ep0Handler+0xb34>
    2934:	e205303f 	and	r3, r5, #63	; 0x3f
    2938:	e383300a 	orr	r3, r3, #10	; 0xa
    293c:	eafffedc 	b	24b4 <Ep0Handler+0x80>
    2940:	e3a01001 	mov	r1, #1	; 0x1
    2944:	e59f06b4 	ldr	r0, [pc, #1716]	; 3000 <Ep0Handler+0xbcc>
    2948:	ebfffc4a 	bl	1a78 <WrPktEp0>
    294c:	e59f2614 	ldr	r2, [pc, #1556]	; 2f68 <Ep0Handler+0xb34>
    2950:	e205303f 	and	r3, r5, #63	; 0x3f
    2954:	e383300a 	orr	r3, r3, #10	; 0xa
    2958:	eafffed5 	b	24b4 <Ep0Handler+0x80>
    295c:	e3a01001 	mov	r1, #1	; 0x1
    2960:	e59f069c 	ldr	r0, [pc, #1692]	; 3004 <Ep0Handler+0xbd0>
    2964:	ebfffc43 	bl	1a78 <WrPktEp0>
    2968:	e59f25f8 	ldr	r2, [pc, #1528]	; 2f68 <Ep0Handler+0xb34>
    296c:	e205303f 	and	r3, r5, #63	; 0x3f
    2970:	e383300a 	orr	r3, r3, #10	; 0xa
    2974:	eafffece 	b	24b4 <Ep0Handler+0x80>
    2978:	e59f0688 	ldr	r0, [pc, #1672]	; 3008 <Ep0Handler+0xbd4>
    297c:	ebfffd57 	bl	1ee0 <DbgPrintf>
    2980:	e3a01008 	mov	r1, #8	; 0x8
    2984:	e59f0614 	ldr	r0, [pc, #1556]	; 2fa0 <Ep0Handler+0xb6c>
    2988:	ebfffc3a 	bl	1a78 <WrPktEp0>
    298c:	e59f25d4 	ldr	r2, [pc, #1492]	; 2f68 <Ep0Handler+0xb34>
    2990:	e205303f 	and	r3, r5, #63	; 0x3f
    2994:	e3833002 	orr	r3, r3, #2	; 0x2
    2998:	e5c23000 	strb	r3, [r2]
    299c:	e59f35d8 	ldr	r3, [pc, #1496]	; 2f7c <Ep0Handler+0xb48>
    29a0:	e3a02029 	mov	r2, #41	; 0x29
    29a4:	e5832000 	str	r2, [r3]
    29a8:	e91ba8f0 	ldmdb	fp, {r4, r5, r6, r7, fp, sp, pc}
    29ac:	e59f0658 	ldr	r0, [pc, #1624]	; 300c <Ep0Handler+0xbd8>
    29b0:	ebfffd4a 	bl	1ee0 <DbgPrintf>
    29b4:	e3a01001 	mov	r1, #1	; 0x1
    29b8:	e59f05e8 	ldr	r0, [pc, #1512]	; 2fa8 <Ep0Handler+0xb74>
    29bc:	ebfffc2d 	bl	1a78 <WrPktEp0>
    29c0:	e59f25a0 	ldr	r2, [pc, #1440]	; 2f68 <Ep0Handler+0xb34>
    29c4:	e205303f 	and	r3, r5, #63	; 0x3f
    29c8:	e383300a 	orr	r3, r3, #10	; 0xa
    29cc:	eafffeb8 	b	24b4 <Ep0Handler+0x80>
    29d0:	e59f0638 	ldr	r0, [pc, #1592]	; 3010 <Ep0Handler+0xbdc>
    29d4:	ebfffd41 	bl	1ee0 <DbgPrintf>
    29d8:	e3a01008 	mov	r1, #8	; 0x8
    29dc:	e59f05c8 	ldr	r0, [pc, #1480]	; 2fac <Ep0Handler+0xb78>
    29e0:	ebfffc24 	bl	1a78 <WrPktEp0>
    29e4:	e59f257c 	ldr	r2, [pc, #1404]	; 2f68 <Ep0Handler+0xb34>
    29e8:	e205303f 	and	r3, r5, #63	; 0x3f
    29ec:	e3833002 	orr	r3, r3, #2	; 0x2
    29f0:	e5c23000 	strb	r3, [r2]
    29f4:	e59f3580 	ldr	r3, [pc, #1408]	; 2f7c <Ep0Handler+0xb48>
    29f8:	e3a0202b 	mov	r2, #43	; 0x2b
    29fc:	e5832000 	str	r2, [r3]
    2a00:	e91ba8f0 	ldmdb	fp, {r4, r5, r6, r7, fp, sp, pc}
    2a04:	e59f0608 	ldr	r0, [pc, #1544]	; 3014 <Ep0Handler+0xbe0>
    2a08:	ebfffd34 	bl	1ee0 <DbgPrintf>
    2a0c:	e3a01001 	mov	r1, #1	; 0x1
    2a10:	e59f0600 	ldr	r0, [pc, #1536]	; 3018 <Ep0Handler+0xbe4>
    2a14:	ebfffc17 	bl	1a78 <WrPktEp0>
    2a18:	e59f2548 	ldr	r2, [pc, #1352]	; 2f68 <Ep0Handler+0xb34>
    2a1c:	e205303f 	and	r3, r5, #63	; 0x3f
    2a20:	e383300a 	orr	r3, r3, #10	; 0xa
    2a24:	eafffea2 	b	24b4 <Ep0Handler+0x80>
    2a28:	e59f05ec 	ldr	r0, [pc, #1516]	; 301c <Ep0Handler+0xbe8>
    2a2c:	ebfffd2b 	bl	1ee0 <DbgPrintf>
    2a30:	e3a01007 	mov	r1, #7	; 0x7
    2a34:	e59f057c 	ldr	r0, [pc, #1404]	; 2fb8 <Ep0Handler+0xb84>
    2a38:	ebfffc0e 	bl	1a78 <WrPktEp0>
    2a3c:	e59f2524 	ldr	r2, [pc, #1316]	; 2f68 <Ep0Handler+0xb34>
    2a40:	e205303f 	and	r3, r5, #63	; 0x3f
    2a44:	e383300a 	orr	r3, r3, #10	; 0xa
    2a48:	eafffe99 	b	24b4 <Ep0Handler+0x80>
    2a4c:	e59f05cc 	ldr	r0, [pc, #1484]	; 3020 <Ep0Handler+0xbec>
    2a50:	ebfffd22 	bl	1ee0 <DbgPrintf>
    2a54:	e3a01007 	mov	r1, #7	; 0x7
    2a58:	e59f0564 	ldr	r0, [pc, #1380]	; 2fc4 <Ep0Handler+0xb90>
    2a5c:	ebfffc05 	bl	1a78 <WrPktEp0>
    2a60:	e59f2500 	ldr	r2, [pc, #1280]	; 2f68 <Ep0Handler+0xb34>
    2a64:	e205303f 	and	r3, r5, #63	; 0x3f
    2a68:	e383300a 	orr	r3, r3, #10	; 0xa
    2a6c:	eafffe90 	b	24b4 <Ep0Handler+0x80>
    2a70:	e3a01001 	mov	r1, #1	; 0x1
    2a74:	e59f05a8 	ldr	r0, [pc, #1448]	; 3024 <Ep0Handler+0xbf0>
    2a78:	ebfffbfe 	bl	1a78 <WrPktEp0>
    2a7c:	e59f24e4 	ldr	r2, [pc, #1252]	; 2f68 <Ep0Handler+0xb34>
    2a80:	e205303f 	and	r3, r5, #63	; 0x3f
    2a84:	e383300a 	orr	r3, r3, #10	; 0xa
    2a88:	eafffe89 	b	24b4 <Ep0Handler+0x80>
    2a8c:	e59f4594 	ldr	r4, [pc, #1428]	; 3028 <Ep0Handler+0xbf4>
    2a90:	e3a01008 	mov	r1, #8	; 0x8
    2a94:	e1a00004 	mov	r0, r4
    2a98:	ebfffbeb 	bl	1a4c <RdPktEp0>
    2a9c:	e1a00004 	mov	r0, r4
    2aa0:	eb000170 	bl	3068 <PrintEp0Pkt>
    2aa4:	e5d43001 	ldrb	r3, [r4, #1]
    2aa8:	e353000c 	cmp	r3, #12	; 0xc
    2aac:	979ff103 	ldrls	pc, [pc, r3, lsl #2]
    2ab0:	ea0000e9 	b	2e5c <Ep0Handler+0xa28>
    2ab4:	00002c80 	andeq	r2, r0, r0, lsl #25
    2ab8:	00002d5c 	andeq	r2, r0, ip, asr sp
    2abc:	00002e5c 	andeq	r2, r0, ip, asr lr
    2ac0:	00002de4 	andeq	r2, r0, r4, ror #27
    2ac4:	00002e5c 	andeq	r2, r0, ip, asr lr
    2ac8:	00002e70 	andeq	r2, r0, r0, ror lr
    2acc:	00002ae8 	andeq	r2, r0, r8, ror #21
    2ad0:	00002d74 	andeq	r2, r0, r4, ror sp
    2ad4:	00002eb0 	streqh	r2, [r0], -r0
    2ad8:	00002ed0 	ldreqd	r2, [r0], -r0
    2adc:	00002f14 	andeq	r2, r0, r4, lsl pc
    2ae0:	00002f34 	andeq	r2, r0, r4, lsr pc
    2ae4:	00002f54 	andeq	r2, r0, r4, asr pc
    2ae8:	e59f3538 	ldr	r3, [pc, #1336]	; 3028 <Ep0Handler+0xbf4>
    2aec:	e5d33003 	ldrb	r3, [r3, #3]
    2af0:	e2433001 	sub	r3, r3, #1	; 0x1
    2af4:	e3530004 	cmp	r3, #4	; 0x4
    2af8:	979ff103 	ldrls	pc, [pc, r3, lsl #2]
    2afc:	ea00000e 	b	2b3c <Ep0Handler+0x708>
    2b00:	00002b14 	andeq	r2, r0, r4, lsl fp
    2b04:	00002b48 	andeq	r2, r0, r8, asr #22
    2b08:	00002b90 	muleq	r0, r0, fp
    2b0c:	00002c04 	andeq	r2, r0, r4, lsl #24
    2b10:	00002c2c 	andeq	r2, r0, ip, lsr #24
    2b14:	e59f0510 	ldr	r0, [pc, #1296]	; 302c <Ep0Handler+0xbf8>
    2b18:	ebfffcf0 	bl	1ee0 <DbgPrintf>
    2b1c:	e59f2444 	ldr	r2, [pc, #1092]	; 2f68 <Ep0Handler+0xb34>
    2b20:	e205303f 	and	r3, r5, #63	; 0x3f
    2b24:	e3833040 	orr	r3, r3, #64	; 0x40
    2b28:	e5c23000 	strb	r3, [r2]
    2b2c:	e59f3448 	ldr	r3, [pc, #1096]	; 2f7c <Ep0Handler+0xb48>
    2b30:	e3a0200a 	mov	r2, #10	; 0xa
    2b34:	e5832000 	str	r2, [r3]
    2b38:	eafffe75 	b	2514 <Ep0Handler+0xe0>
    2b3c:	e59f04ec 	ldr	r0, [pc, #1260]	; 3030 <Ep0Handler+0xbfc>
    2b40:	ebfffce6 	bl	1ee0 <DbgPrintf>
    2b44:	eafffe72 	b	2514 <Ep0Handler+0xe0>
    2b48:	e59f04e4 	ldr	r0, [pc, #1252]	; 3034 <Ep0Handler+0xc00>
    2b4c:	ebfffce3 	bl	1ee0 <DbgPrintf>
    2b50:	e59f34d0 	ldr	r3, [pc, #1232]	; 3028 <Ep0Handler+0xbf4>
    2b54:	e205203f 	and	r2, r5, #63	; 0x3f
    2b58:	e5d31007 	ldrb	r1, [r3, #7]
    2b5c:	e5d33006 	ldrb	r3, [r3, #6]
    2b60:	e3822040 	orr	r2, r2, #64	; 0x40
    2b64:	e0833401 	add	r3, r3, r1, lsl #8
    2b68:	e3530009 	cmp	r3, #9	; 0x9
    2b6c:	e59f33f4 	ldr	r3, [pc, #1012]	; 2f68 <Ep0Handler+0xb34>
    2b70:	e5c32000 	strb	r2, [r3]
    2b74:	c59f3400 	ldrgt	r3, [pc, #1024]	; 2f7c <Ep0Handler+0xb48>
    2b78:	d59f33fc 	ldrle	r3, [pc, #1020]	; 2f7c <Ep0Handler+0xb48>
    2b7c:	c3a02014 	movgt	r2, #20	; 0x14
    2b80:	d3a02028 	movle	r2, #40	; 0x28
    2b84:	c5832000 	strgt	r2, [r3]
    2b88:	d5832000 	strle	r2, [r3]
    2b8c:	eafffe60 	b	2514 <Ep0Handler+0xe0>
    2b90:	e59f04a0 	ldr	r0, [pc, #1184]	; 3038 <Ep0Handler+0xc04>
    2b94:	ebfffcd1 	bl	1ee0 <DbgPrintf>
    2b98:	e59f3488 	ldr	r3, [pc, #1160]	; 3028 <Ep0Handler+0xbf4>
    2b9c:	e59f23c4 	ldr	r2, [pc, #964]	; 2f68 <Ep0Handler+0xb34>
    2ba0:	e5d31002 	ldrb	r1, [r3, #2]
    2ba4:	e205303f 	and	r3, r5, #63	; 0x3f
    2ba8:	e3833040 	orr	r3, r3, #64	; 0x40
    2bac:	e3510001 	cmp	r1, #1	; 0x1
    2bb0:	e5c23000 	strb	r3, [r2]
    2bb4:	059f33c0 	ldreq	r3, [pc, #960]	; 2f7c <Ep0Handler+0xb48>
    2bb8:	03a0201f 	moveq	r2, #31	; 0x1f
    2bbc:	05832000 	streq	r2, [r3]
    2bc0:	0a000007 	beq	2be4 <Ep0Handler+0x7b0>
    2bc4:	ca000008 	bgt	2bec <Ep0Handler+0x7b8>
    2bc8:	e3510000 	cmp	r1, #0	; 0x0
    2bcc:	059f33a8 	ldreq	r3, [pc, #936]	; 2f7c <Ep0Handler+0xb48>
    2bd0:	03a0201e 	moveq	r2, #30	; 0x1e
    2bd4:	05832000 	streq	r2, [r3]
    2bd8:	0a000001 	beq	2be4 <Ep0Handler+0x7b0>
    2bdc:	e59f0458 	ldr	r0, [pc, #1112]	; 303c <Ep0Handler+0xc08>
    2be0:	ebfffcbe 	bl	1ee0 <DbgPrintf>
    2be4:	e59f33e8 	ldr	r3, [pc, #1000]	; 2fd4 <Ep0Handler+0xba0>
    2be8:	ea0000da 	b	2f58 <Ep0Handler+0xb24>
    2bec:	e3510002 	cmp	r1, #2	; 0x2
    2bf0:	059f3384 	ldreq	r3, [pc, #900]	; 2f7c <Ep0Handler+0xb48>
    2bf4:	03a02020 	moveq	r2, #32	; 0x20
    2bf8:	05832000 	streq	r2, [r3]
    2bfc:	1afffff6 	bne	2bdc <Ep0Handler+0x7a8>
    2c00:	eafffff7 	b	2be4 <Ep0Handler+0x7b0>
    2c04:	e59f0434 	ldr	r0, [pc, #1076]	; 3040 <Ep0Handler+0xc0c>
    2c08:	ebfffcb4 	bl	1ee0 <DbgPrintf>
    2c0c:	e59f2354 	ldr	r2, [pc, #852]	; 2f68 <Ep0Handler+0xb34>
    2c10:	e205303f 	and	r3, r5, #63	; 0x3f
    2c14:	e3833040 	orr	r3, r3, #64	; 0x40
    2c18:	e5c23000 	strb	r3, [r2]
    2c1c:	e59f3358 	ldr	r3, [pc, #856]	; 2f7c <Ep0Handler+0xb48>
    2c20:	e3a0202a 	mov	r2, #42	; 0x2a
    2c24:	e5832000 	str	r2, [r3]
    2c28:	eafffe39 	b	2514 <Ep0Handler+0xe0>
    2c2c:	e59f0410 	ldr	r0, [pc, #1040]	; 3044 <Ep0Handler+0xc10>
    2c30:	ebfffcaa 	bl	1ee0 <DbgPrintf>
    2c34:	e59f33ec 	ldr	r3, [pc, #1004]	; 3028 <Ep0Handler+0xbf4>
    2c38:	e5d32002 	ldrb	r2, [r3, #2]
    2c3c:	e205303f 	and	r3, r5, #63	; 0x3f
    2c40:	e212100f 	ands	r1, r2, #15	; 0xf
    2c44:	e59f231c 	ldr	r2, [pc, #796]	; 2f68 <Ep0Handler+0xb34>
    2c48:	e3833040 	orr	r3, r3, #64	; 0x40
    2c4c:	e5c23000 	strb	r3, [r2]
    2c50:	059f3324 	ldreq	r3, [pc, #804]	; 2f7c <Ep0Handler+0xb48>
    2c54:	03a0202c 	moveq	r2, #44	; 0x2c
    2c58:	05832000 	streq	r2, [r3]
    2c5c:	0afffe2c 	beq	2514 <Ep0Handler+0xe0>
    2c60:	e3510001 	cmp	r1, #1	; 0x1
    2c64:	059f3310 	ldreq	r3, [pc, #784]	; 2f7c <Ep0Handler+0xb48>
    2c68:	03a0202d 	moveq	r2, #45	; 0x2d
    2c6c:	05832000 	streq	r2, [r3]
    2c70:	0afffe27 	beq	2514 <Ep0Handler+0xe0>
    2c74:	e59f03cc 	ldr	r0, [pc, #972]	; 3048 <Ep0Handler+0xc14>
    2c78:	ebfffc98 	bl	1ee0 <DbgPrintf>
    2c7c:	eafffe24 	b	2514 <Ep0Handler+0xe0>
    2c80:	e59f13a0 	ldr	r1, [pc, #928]	; 3028 <Ep0Handler+0xbf4>
    2c84:	e5d13000 	ldrb	r3, [r1]
    2c88:	e3530081 	cmp	r3, #129	; 0x81
    2c8c:	0205303f 	andeq	r3, r5, #63	; 0x3f
    2c90:	059f22d0 	ldreq	r2, [pc, #720]	; 2f68 <Ep0Handler+0xb34>
    2c94:	03833040 	orreq	r3, r3, #64	; 0x40
    2c98:	05c23000 	streqb	r3, [r2]
    2c9c:	059f3350 	ldreq	r3, [pc, #848]	; 2ff4 <Ep0Handler+0xbc0>
    2ca0:	03a02000 	moveq	r2, #0	; 0x0
    2ca4:	05c32001 	streqb	r2, [r3, #1]
    2ca8:	059f32cc 	ldreq	r3, [pc, #716]	; 2f7c <Ep0Handler+0xb48>
    2cac:	02822024 	addeq	r2, r2, #36	; 0x24
    2cb0:	05832000 	streq	r2, [r3]
    2cb4:	0afffe16 	beq	2514 <Ep0Handler+0xe0>
    2cb8:	ca00000f 	bgt	2cfc <Ep0Handler+0x8c8>
    2cbc:	e3530080 	cmp	r3, #128	; 0x80
    2cc0:	0205303f 	andeq	r3, r5, #63	; 0x3f
    2cc4:	059f229c 	ldreq	r2, [pc, #668]	; 2f68 <Ep0Handler+0xb34>
    2cc8:	03833040 	orreq	r3, r3, #64	; 0x40
    2ccc:	05c23000 	streqb	r3, [r2]
    2cd0:	059f3374 	ldreq	r3, [pc, #884]	; 304c <Ep0Handler+0xc18>
    2cd4:	05d32000 	ldreqb	r2, [r3]
    2cd8:	059f3370 	ldreq	r3, [pc, #880]	; 3050 <Ep0Handler+0xc1c>
    2cdc:	05d33000 	ldreqb	r3, [r3]
    2ce0:	01833082 	orreq	r3, r3, r2, lsl #1
    2ce4:	059f2308 	ldreq	r2, [pc, #776]	; 2ff4 <Ep0Handler+0xbc0>
    2ce8:	05c23000 	streqb	r3, [r2]
    2cec:	059f3288 	ldreq	r3, [pc, #648]	; 2f7c <Ep0Handler+0xb48>
    2cf0:	03a02023 	moveq	r2, #35	; 0x23
    2cf4:	05832000 	streq	r2, [r3]
    2cf8:	eafffe05 	b	2514 <Ep0Handler+0xe0>
    2cfc:	e3530082 	cmp	r3, #130	; 0x82
    2d00:	1afffe03 	bne	2514 <Ep0Handler+0xe0>
    2d04:	e5d13004 	ldrb	r3, [r1, #4]
    2d08:	e205203f 	and	r2, r5, #63	; 0x3f
    2d0c:	e313007f 	tst	r3, #127	; 0x7f
    2d10:	e59f3250 	ldr	r3, [pc, #592]	; 2f68 <Ep0Handler+0xb34>
    2d14:	e3822040 	orr	r2, r2, #64	; 0x40
    2d18:	e5c32000 	strb	r2, [r3]
    2d1c:	059f3258 	ldreq	r3, [pc, #600]	; 2f7c <Ep0Handler+0xb48>
    2d20:	03a02025 	moveq	r2, #37	; 0x25
    2d24:	05832000 	streq	r2, [r3]
    2d28:	e5d13004 	ldrb	r3, [r1, #4]
    2d2c:	e203308f 	and	r3, r3, #143	; 0x8f
    2d30:	e3530081 	cmp	r3, #129	; 0x81
    2d34:	059f3240 	ldreq	r3, [pc, #576]	; 2f7c <Ep0Handler+0xb48>
    2d38:	03a02026 	moveq	r2, #38	; 0x26
    2d3c:	05832000 	streq	r2, [r3]
    2d40:	e5d13004 	ldrb	r3, [r1, #4]
    2d44:	e203308f 	and	r3, r3, #143	; 0x8f
    2d48:	e3530003 	cmp	r3, #3	; 0x3
    2d4c:	059f3228 	ldreq	r3, [pc, #552]	; 2f7c <Ep0Handler+0xb48>
    2d50:	03a02027 	moveq	r2, #39	; 0x27
    2d54:	05832000 	streq	r2, [r3]
    2d58:	eafffded 	b	2514 <Ep0Handler+0xe0>
    2d5c:	e59f12c4 	ldr	r1, [pc, #708]	; 3028 <Ep0Handler+0xbf4>
    2d60:	e5d12000 	ldrb	r2, [r1]
    2d64:	e3520000 	cmp	r2, #0	; 0x0
    2d68:	0a000018 	beq	2dd0 <Ep0Handler+0x99c>
    2d6c:	e3520002 	cmp	r2, #2	; 0x2
    2d70:	0a000004 	beq	2d88 <Ep0Handler+0x954>
    2d74:	e59f21ec 	ldr	r2, [pc, #492]	; 2f68 <Ep0Handler+0xb34>
    2d78:	e205303f 	and	r3, r5, #63	; 0x3f
    2d7c:	e3833048 	orr	r3, r3, #72	; 0x48
    2d80:	e5c23000 	strb	r3, [r2]
    2d84:	ea000072 	b	2f54 <Ep0Handler+0xb20>
    2d88:	e5d12002 	ldrb	r2, [r1, #2]
    2d8c:	e3520000 	cmp	r2, #0	; 0x0
    2d90:	1afffff7 	bne	2d74 <Ep0Handler+0x940>
    2d94:	e5d13004 	ldrb	r3, [r1, #4]
    2d98:	e313007f 	tst	r3, #127	; 0x7f
    2d9c:	059f3250 	ldreq	r3, [pc, #592]	; 2ff4 <Ep0Handler+0xbc0>
    2da0:	05c32002 	streqb	r2, [r3, #2]
    2da4:	e5d13004 	ldrb	r3, [r1, #4]
    2da8:	e203308f 	and	r3, r3, #143	; 0x8f
    2dac:	e3530081 	cmp	r3, #129	; 0x81
    2db0:	059f323c 	ldreq	r3, [pc, #572]	; 2ff4 <Ep0Handler+0xbc0>
    2db4:	05c32003 	streqb	r2, [r3, #3]
    2db8:	e5d13004 	ldrb	r3, [r1, #4]
    2dbc:	e203308f 	and	r3, r3, #143	; 0x8f
    2dc0:	e3530003 	cmp	r3, #3	; 0x3
    2dc4:	059f3228 	ldreq	r3, [pc, #552]	; 2ff4 <Ep0Handler+0xbc0>
    2dc8:	05c32004 	streqb	r2, [r3, #4]
    2dcc:	eaffffe8 	b	2d74 <Ep0Handler+0x940>
    2dd0:	e5d13002 	ldrb	r3, [r1, #2]
    2dd4:	e3530001 	cmp	r3, #1	; 0x1
    2dd8:	059f326c 	ldreq	r3, [pc, #620]	; 304c <Ep0Handler+0xc18>
    2ddc:	05c32000 	streqb	r2, [r3]
    2de0:	eaffffe3 	b	2d74 <Ep0Handler+0x940>
    2de4:	e59f123c 	ldr	r1, [pc, #572]	; 3028 <Ep0Handler+0xbf4>
    2de8:	e5d13000 	ldrb	r3, [r1]
    2dec:	e3530000 	cmp	r3, #0	; 0x0
    2df0:	0a000016 	beq	2e50 <Ep0Handler+0xa1c>
    2df4:	e3530002 	cmp	r3, #2	; 0x2
    2df8:	1affffdd 	bne	2d74 <Ep0Handler+0x940>
    2dfc:	e5d13002 	ldrb	r3, [r1, #2]
    2e00:	e3530000 	cmp	r3, #0	; 0x0
    2e04:	1affffda 	bne	2d74 <Ep0Handler+0x940>
    2e08:	e5d13004 	ldrb	r3, [r1, #4]
    2e0c:	e313007f 	tst	r3, #127	; 0x7f
    2e10:	059f31dc 	ldreq	r3, [pc, #476]	; 2ff4 <Ep0Handler+0xbc0>
    2e14:	03a02001 	moveq	r2, #1	; 0x1
    2e18:	05c32002 	streqb	r2, [r3, #2]
    2e1c:	e5d13004 	ldrb	r3, [r1, #4]
    2e20:	e203308f 	and	r3, r3, #143	; 0x8f
    2e24:	e3530081 	cmp	r3, #129	; 0x81
    2e28:	059f31c4 	ldreq	r3, [pc, #452]	; 2ff4 <Ep0Handler+0xbc0>
    2e2c:	03a02001 	moveq	r2, #1	; 0x1
    2e30:	05c32003 	streqb	r2, [r3, #3]
    2e34:	e5d13004 	ldrb	r3, [r1, #4]
    2e38:	e203308f 	and	r3, r3, #143	; 0x8f
    2e3c:	e3530003 	cmp	r3, #3	; 0x3
    2e40:	059f31ac 	ldreq	r3, [pc, #428]	; 2ff4 <Ep0Handler+0xbc0>
    2e44:	03a02001 	moveq	r2, #1	; 0x1
    2e48:	05c32004 	streqb	r2, [r3, #4]
    2e4c:	eaffffc8 	b	2d74 <Ep0Handler+0x940>
    2e50:	e5d12002 	ldrb	r2, [r1, #2]
    2e54:	e3520001 	cmp	r2, #1	; 0x1
    2e58:	eaffffde 	b	2dd8 <Ep0Handler+0x9a4>
    2e5c:	e59f31c4 	ldr	r3, [pc, #452]	; 3028 <Ep0Handler+0xbf4>
    2e60:	e59f01ec 	ldr	r0, [pc, #492]	; 3054 <Ep0Handler+0xc20>
    2e64:	e5d31001 	ldrb	r1, [r3, #1]
    2e68:	ebfffc1c 	bl	1ee0 <DbgPrintf>
    2e6c:	eaffffc0 	b	2d74 <Ep0Handler+0x940>
    2e70:	e59f41b0 	ldr	r4, [pc, #432]	; 3028 <Ep0Handler+0xbf4>
    2e74:	e59f01dc 	ldr	r0, [pc, #476]	; 3058 <Ep0Handler+0xc24>
    2e78:	e5d41002 	ldrb	r1, [r4, #2]
    2e7c:	ebfffc17 	bl	1ee0 <DbgPrintf>
    2e80:	e5d42002 	ldrb	r2, [r4, #2]
    2e84:	e59f31d0 	ldr	r3, [pc, #464]	; 305c <Ep0Handler+0xc28>
    2e88:	e3822080 	orr	r2, r2, #128	; 0x80
    2e8c:	e5c32000 	strb	r2, [r3]
    2e90:	e59f30e4 	ldr	r3, [pc, #228]	; 2f7c <Ep0Handler+0xb48>
    2e94:	e3a02000 	mov	r2, #0	; 0x0
    2e98:	e5832000 	str	r2, [r3]
    2e9c:	e205103f 	and	r1, r5, #63	; 0x3f
    2ea0:	e59f30c0 	ldr	r3, [pc, #192]	; 2f68 <Ep0Handler+0xb34>
    2ea4:	e3811048 	orr	r1, r1, #72	; 0x48
    2ea8:	e5c31000 	strb	r1, [r3]
    2eac:	eafffd98 	b	2514 <Ep0Handler+0xe0>
    2eb0:	e59f20b0 	ldr	r2, [pc, #176]	; 2f68 <Ep0Handler+0xb34>
    2eb4:	e205303f 	and	r3, r5, #63	; 0x3f
    2eb8:	e3833040 	orr	r3, r3, #64	; 0x40
    2ebc:	e5c23000 	strb	r3, [r2]
    2ec0:	e59f30b4 	ldr	r3, [pc, #180]	; 2f7c <Ep0Handler+0xb48>
    2ec4:	e3a02021 	mov	r2, #33	; 0x21
    2ec8:	e5832000 	str	r2, [r3]
    2ecc:	eafffd90 	b	2514 <Ep0Handler+0xe0>
    2ed0:	e59f0188 	ldr	r0, [pc, #392]	; 3060 <Ep0Handler+0xc2c>
    2ed4:	ebfffc01 	bl	1ee0 <DbgPrintf>
    2ed8:	e59f3148 	ldr	r3, [pc, #328]	; 3028 <Ep0Handler+0xbf4>
    2edc:	e59f2084 	ldr	r2, [pc, #132]	; 2f68 <Ep0Handler+0xb34>
    2ee0:	e5d31002 	ldrb	r1, [r3, #2]
    2ee4:	e205303f 	and	r3, r5, #63	; 0x3f
    2ee8:	e3833048 	orr	r3, r3, #72	; 0x48
    2eec:	e5c23000 	strb	r3, [r2]
    2ef0:	e59f30f4 	ldr	r3, [pc, #244]	; 2fec <Ep0Handler+0xbb8>
    2ef4:	e3a02000 	mov	r2, #0	; 0x0
    2ef8:	e5c31000 	strb	r1, [r3]
    2efc:	e59f3078 	ldr	r3, [pc, #120]	; 2f7c <Ep0Handler+0xb48>
    2f00:	e5832000 	str	r2, [r3]
    2f04:	e59f3158 	ldr	r3, [pc, #344]	; 3064 <Ep0Handler+0xc30>
    2f08:	e2822001 	add	r2, r2, #1	; 0x1
    2f0c:	e5832000 	str	r2, [r3]
    2f10:	eafffd7f 	b	2514 <Ep0Handler+0xe0>
    2f14:	e59f204c 	ldr	r2, [pc, #76]	; 2f68 <Ep0Handler+0xb34>
    2f18:	e205303f 	and	r3, r5, #63	; 0x3f
    2f1c:	e3833040 	orr	r3, r3, #64	; 0x40
    2f20:	e5c23000 	strb	r3, [r2]
    2f24:	e59f3050 	ldr	r3, [pc, #80]	; 2f7c <Ep0Handler+0xb48>
    2f28:	e3a0202e 	mov	r2, #46	; 0x2e
    2f2c:	e5832000 	str	r2, [r3]
    2f30:	eafffd77 	b	2514 <Ep0Handler+0xe0>
    2f34:	e59f30ec 	ldr	r3, [pc, #236]	; 3028 <Ep0Handler+0xbf4>
    2f38:	e205203f 	and	r2, r5, #63	; 0x3f
    2f3c:	e5d31002 	ldrb	r1, [r3, #2]
    2f40:	e59f30dc 	ldr	r3, [pc, #220]	; 3024 <Ep0Handler+0xbf0>
    2f44:	e3822048 	orr	r2, r2, #72	; 0x48
    2f48:	e5c31000 	strb	r1, [r3]
    2f4c:	e59f3014 	ldr	r3, [pc, #20]	; 2f68 <Ep0Handler+0xb34>
    2f50:	e5c32000 	strb	r2, [r3]
    2f54:	e59f3020 	ldr	r3, [pc, #32]	; 2f7c <Ep0Handler+0xb48>
    2f58:	e3a02000 	mov	r2, #0	; 0x0
    2f5c:	e5832000 	str	r2, [r3]
    2f60:	eafffd6b 	b	2514 <Ep0Handler+0xe0>
    2f64:	52000178 	andpl	r0, r0, #30	; 0x1e
    2f68:	52000184 	andpl	r0, r0, #33	; 0x21
    2f6c:	000050c4 	andeq	r5, r0, r4, asr #1
    2f70:	000050cc 	andeq	r5, r0, ip, asr #1
    2f74:	52000198 	andpl	r0, r0, #38	; 0x26
    2f78:	520001c0 	andpl	r0, r0, #48	; 0x30
    2f7c:	320010f8 	andcc	r1, r0, #248	; 0xf8
    2f80:	000050d8 	ldreqd	r5, [r0], -r8
    2f84:	000050e0 	andeq	r5, r0, r0, ror #1
    2f88:	32001110 	andcc	r1, r0, #4	; 0x4
    2f8c:	000050e8 	andeq	r5, r0, r8, ror #1
    2f90:	32001118 	andcc	r1, r0, #6	; 0x6
    2f94:	000050f0 	streqd	r5, [r0], -r0
    2f98:	32001120 	andcc	r1, r0, #8	; 0x8
    2f9c:	000050f8 	streqd	r5, [r0], -r8
    2fa0:	32001124 	andcc	r1, r0, #9	; 0x9
    2fa4:	00005100 	andeq	r5, r0, r0, lsl #2
    2fa8:	3200112c 	andcc	r1, r0, #11	; 0xb
    2fac:	32001130 	andcc	r1, r0, #12	; 0xc
    2fb0:	00005108 	andeq	r5, r0, r8, lsl #2
    2fb4:	32001137 	andcc	r1, r0, #-1073741811	; 0xc000000d
    2fb8:	3200113c 	andcc	r1, r0, #15	; 0xf
    2fbc:	00005110 	andeq	r5, r0, r0, lsl r1
    2fc0:	32001142 	andcc	r1, r0, #-2147483632	; 0x80000010
    2fc4:	32001144 	andcc	r1, r0, #17	; 0x11
    2fc8:	00005118 	andeq	r5, r0, r8, lsl r1
    2fcc:	00005120 	andeq	r5, r0, r0, lsr #2
    2fd0:	0000507c 	andeq	r5, r0, ip, ror r0
    2fd4:	320010f4 	andcc	r1, r0, #244	; 0xf4
    2fd8:	0000512c 	andeq	r5, r0, ip, lsr #2
    2fdc:	00005080 	andeq	r5, r0, r0, lsl #1
    2fe0:	00005138 	andeq	r5, r0, r8, lsr r1
    2fe4:	00005096 	muleq	r0, r6, r0
    2fe8:	00005144 	andeq	r5, r0, r4, asr #2
    2fec:	3200114c 	andcc	r1, r0, #19	; 0x13
    2ff0:	00005148 	andeq	r5, r0, r8, asr #2
    2ff4:	32001154 	andcc	r1, r0, #21	; 0x15
    2ff8:	32001155 	andcc	r1, r0, #1073741845	; 0x40000015
    2ffc:	32001156 	andcc	r1, r0, #-2147483627	; 0x80000015
    3000:	32001157 	andcc	r1, r0, #-1073741803	; 0xc0000015
    3004:	32001158 	andcc	r1, r0, #22	; 0x16
    3008:	00005150 	andeq	r5, r0, r0, asr r1
    300c:	00005158 	andeq	r5, r0, r8, asr r1
    3010:	00005160 	andeq	r5, r0, r0, ror #2
    3014:	00005168 	andeq	r5, r0, r8, ror #2
    3018:	32001138 	andcc	r1, r0, #14	; 0xe
    301c:	00005170 	andeq	r5, r0, r0, ror r1
    3020:	00005178 	andeq	r5, r0, r8, ror r1
    3024:	32001150 	andcc	r1, r0, #20	; 0x14
    3028:	32001108 	andcc	r1, r0, #2	; 0x2
    302c:	00005180 	andeq	r5, r0, r0, lsl #3
    3030:	00005188 	andeq	r5, r0, r8, lsl #3
    3034:	00005194 	muleq	r0, r4, r1
    3038:	0000519c 	muleq	r0, ip, r1
    303c:	000051a4 	andeq	r5, r0, r4, lsr #3
    3040:	000051b0 	streqh	r5, [r0], -r0
    3044:	000051b8 	streqh	r5, [r0], -r8
    3048:	000051c0 	andeq	r5, r0, r0, asr #3
    304c:	32001100 	andcc	r1, r0, #0	; 0x0
    3050:	32000029 	andcc	r0, r0, #41	; 0x29
    3054:	000051cc 	andeq	r5, r0, ip, asr #3
    3058:	000051dc 	ldreqd	r5, [r0], -ip
    305c:	52000140 	andpl	r0, r0, #16	; 0x10
    3060:	000051e4 	andeq	r5, r0, r4, ror #3
    3064:	32000050 	andcc	r0, r0, #80	; 0x50

00003068 <PrintEp0Pkt>:
    3068:	e1a0c00d 	mov	ip, sp
    306c:	e92dd830 	stmdb	sp!, {r4, r5, fp, ip, lr, pc}
    3070:	e1a05000 	mov	r5, r0
    3074:	e59f002c 	ldr	r0, [pc, #44]	; 30a8 <PrintEp0Pkt+0x40>
    3078:	e24cb004 	sub	fp, ip, #4	; 0x4
    307c:	ebfffb97 	bl	1ee0 <DbgPrintf>
    3080:	e3a04000 	mov	r4, #0	; 0x0
    3084:	e7d51004 	ldrb	r1, [r5, r4]
    3088:	e59f001c 	ldr	r0, [pc, #28]	; 30ac <PrintEp0Pkt+0x44>
    308c:	e2844001 	add	r4, r4, #1	; 0x1
    3090:	ebfffb92 	bl	1ee0 <DbgPrintf>
    3094:	e3540007 	cmp	r4, #7	; 0x7
    3098:	dafffff9 	ble	3084 <PrintEp0Pkt+0x1c>
    309c:	e59f000c 	ldr	r0, [pc, #12]	; 30b0 <PrintEp0Pkt+0x48>
    30a0:	e91b6830 	ldmdb	fp, {r4, r5, fp, sp, lr}
    30a4:	eafffb8d 	b	1ee0 <DbgPrintf>
    30a8:	000051ec 	andeq	r5, r0, ip, ror #3
    30ac:	000051f4 	streqd	r5, [r0], -r4
    30b0:	000051f8 	streqd	r5, [r0], -r8

000030b4 <InitDescriptorTable>:
    30b4:	e59f0130 	ldr	r0, [pc, #304]	; 31ec <InitDescriptorTable+0x138>
    30b8:	e59f2130 	ldr	r2, [pc, #304]	; 31f0 <InitDescriptorTable+0x13c>
    30bc:	e3a03019 	mov	r3, #25	; 0x19
    30c0:	e92d47f0 	stmdb	sp!, {r4, r5, r6, r7, r8, r9, sl, lr}
    30c4:	e5c03008 	strb	r3, [r0, #8]
    30c8:	e2433009 	sub	r3, r3, #9	; 0x9
    30cc:	e5c23002 	strb	r3, [r2, #2]
    30d0:	e2433008 	sub	r3, r3, #8	; 0x8
    30d4:	e5c23007 	strb	r3, [r2, #7]
    30d8:	e283303d 	add	r3, r3, #61	; 0x3d
    30dc:	e5c23008 	strb	r3, [r2, #8]
    30e0:	e283300e 	add	r3, r3, #14	; 0xe
    30e4:	e5c23009 	strb	r3, [r2, #9]
    30e8:	e243301f 	sub	r3, r3, #31	; 0x1f
    30ec:	e5c2300a 	strb	r3, [r2, #10]
    30f0:	e59fe0fc 	ldr	lr, [pc, #252]	; 31f4 <InitDescriptorTable+0x140>
    30f4:	e3a0c001 	mov	ip, #1	; 0x1
    30f8:	e3a08012 	mov	r8, #18	; 0x12
    30fc:	e283308c 	add	r3, r3, #140	; 0x8c
    3100:	e5c2800b 	strb	r8, [r2, #11]
    3104:	e5c2c011 	strb	ip, [r2, #17]
    3108:	e59f40e8 	ldr	r4, [pc, #232]	; 31f8 <InitDescriptorTable+0x144>
    310c:	e5c03007 	strb	r3, [r0, #7]
    3110:	e24330bc 	sub	r3, r3, #188	; 0xbc
    3114:	e5c0c005 	strb	ip, [r0, #5]
    3118:	e3a01000 	mov	r1, #0	; 0x0
    311c:	e5ce3001 	strb	r3, [lr, #1]
    3120:	e59f50d4 	ldr	r5, [pc, #212]	; 31fc <InitDescriptorTable+0x148>
    3124:	e3a06002 	mov	r6, #2	; 0x2
    3128:	e3a07020 	mov	r7, #32	; 0x20
    312c:	e3a0a0ff 	mov	sl, #255	; 0xff
    3130:	e3a09009 	mov	r9, #9	; 0x9
    3134:	e283307d 	add	r3, r3, #125	; 0x7d
    3138:	e5ce9000 	strb	r9, [lr]
    313c:	e5cea005 	strb	sl, [lr, #5]
    3140:	e5c28000 	strb	r8, [r2]
    3144:	e5c2c001 	strb	ip, [r2, #1]
    3148:	e5c2c003 	strb	ip, [r2, #3]
    314c:	e5c2a004 	strb	sl, [r2, #4]
    3150:	e5c21005 	strb	r1, [r2, #5]
    3154:	e5c21006 	strb	r1, [r2, #6]
    3158:	e5c2100c 	strb	r1, [r2, #12]
    315c:	e5c2c00d 	strb	ip, [r2, #13]
    3160:	e5c2c00e 	strb	ip, [r2, #14]
    3164:	e5c2600f 	strb	r6, [r2, #15]
    3168:	e5c21010 	strb	r1, [r2, #16]
    316c:	e5c09000 	strb	r9, [r0]
    3170:	e5c06001 	strb	r6, [r0, #1]
    3174:	e5c07002 	strb	r7, [r0, #2]
    3178:	e5c01003 	strb	r1, [r0, #3]
    317c:	e5c0c004 	strb	ip, [r0, #4]
    3180:	e5c01006 	strb	r1, [r0, #6]
    3184:	e5ce1002 	strb	r1, [lr, #2]
    3188:	e5ce1003 	strb	r1, [lr, #3]
    318c:	e5ce6004 	strb	r6, [lr, #4]
    3190:	e5c43002 	strb	r3, [r4, #2]
    3194:	e3a03007 	mov	r3, #7	; 0x7
    3198:	e5c53000 	strb	r3, [r5]
    319c:	e3a03005 	mov	r3, #5	; 0x5
    31a0:	e5c53001 	strb	r3, [r5, #1]
    31a4:	e3a03003 	mov	r3, #3	; 0x3
    31a8:	e5c53002 	strb	r3, [r5, #2]
    31ac:	e3a03007 	mov	r3, #7	; 0x7
    31b0:	e5c43000 	strb	r3, [r4]
    31b4:	e3a03005 	mov	r3, #5	; 0x5
    31b8:	e5ce1006 	strb	r1, [lr, #6]
    31bc:	e5c51006 	strb	r1, [r5, #6]
    31c0:	e5ce1008 	strb	r1, [lr, #8]
    31c4:	e5c41006 	strb	r1, [r4, #6]
    31c8:	e5c56003 	strb	r6, [r5, #3]
    31cc:	e5c57004 	strb	r7, [r5, #4]
    31d0:	e5ce1007 	strb	r1, [lr, #7]
    31d4:	e5c43001 	strb	r3, [r4, #1]
    31d8:	e5c46003 	strb	r6, [r4, #3]
    31dc:	e5c47004 	strb	r7, [r4, #4]
    31e0:	e5c41005 	strb	r1, [r4, #5]
    31e4:	e5c51005 	strb	r1, [r5, #5]
    31e8:	e8bd87f0 	ldmia	sp!, {r4, r5, r6, r7, r8, r9, sl, pc}
    31ec:	32001124 	andcc	r1, r0, #9	; 0x9
    31f0:	32001110 	andcc	r1, r0, #4	; 0x4
    31f4:	32001130 	andcc	r1, r0, #12	; 0xc
    31f8:	3200113c 	andcc	r1, r0, #15	; 0xf
    31fc:	32001144 	andcc	r1, r0, #17	; 0x11
    3200:	e1a0c00d 	mov	ip, sp
    3204:	e92dd9f0 	stmdb	sp!, {r4, r5, r6, r7, r8, fp, ip, lr, pc}
    3208:	e1a06000 	mov	r6, r0
    320c:	e3560000 	cmp	r6, #0	; 0x0
    3210:	e24cb004 	sub	fp, ip, #4	; 0x4
    3214:	0a00001e 	beq	3294 <InitDescriptorTable+0x1e0>
    3218:	e5963020 	ldr	r3, [r6, #32]
    321c:	e3a08000 	mov	r8, #0	; 0x0
    3220:	e1580003 	cmp	r8, r3
    3224:	291ba9f0 	ldmcsdb	fp, {r4, r5, r6, r7, r8, fp, sp, pc}
    3228:	e5967024 	ldr	r7, [r6, #36]
    322c:	e1a05208 	mov	r5, r8, lsl #4
    3230:	e0874005 	add	r4, r7, r5
    3234:	e5943008 	ldr	r3, [r4, #8]
    3238:	e3a01000 	mov	r1, #0	; 0x0
    323c:	e1530001 	cmp	r3, r1
    3240:	e2888001 	add	r8, r8, #1	; 0x1
    3244:	e1a02003 	mov	r2, r3
    3248:	0a000004 	beq	3260 <InitDescriptorTable+0x1ac>
    324c:	e5940004 	ldr	r0, [r4, #4]
    3250:	eb00012c 	bl	3708 <mem_set>
    3254:	e7971005 	ldr	r1, [r7, r5]
    3258:	e9940005 	ldmib	r4, {r0, r2}
    325c:	ebfff69c 	bl	cd4 <mem_cpy>
    3260:	e594c008 	ldr	ip, [r4, #8]
    3264:	e594300c 	ldr	r3, [r4, #12]
    3268:	e3a01000 	mov	r1, #0	; 0x0
    326c:	e15c0003 	cmp	ip, r3
    3270:	e06c2003 	rsb	r2, ip, r3
    3274:	0a000002 	beq	3284 <InitDescriptorTable+0x1d0>
    3278:	e5940004 	ldr	r0, [r4, #4]
    327c:	e080000c 	add	r0, r0, ip
    3280:	eb000120 	bl	3708 <mem_set>
    3284:	e5963020 	ldr	r3, [r6, #32]
    3288:	e1580003 	cmp	r8, r3
    328c:	3affffe5 	bcc	3228 <InitDescriptorTable+0x174>
    3290:	e91ba9f0 	ldmdb	fp, {r4, r5, r6, r7, r8, fp, sp, pc}
    3294:	eafffffe 	b	3294 <InitDescriptorTable+0x1e0>

00003298 <_InitKernel>:
    3298:	e1a0c00d 	mov	ip, sp
    329c:	e59f3014 	ldr	r3, [pc, #20]	; 32b8 <_InitKernel+0x20>
    32a0:	e92dd800 	stmdb	sp!, {fp, ip, lr, pc}
    32a4:	e5930000 	ldr	r0, [r3]
    32a8:	e24cb004 	sub	fp, ip, #4	; 0x4
    32ac:	ebffffd3 	bl	3200 <InitDescriptorTable+0x14c>
    32b0:	ebfff6bb 	bl	da4 <Main>
    32b4:	eafffffe 	b	32b4 <_InitKernel+0x1c>
    32b8:	000051fc 	streqd	r5, [r0], -ip

000032bc <HandleIRQ>:
    32bc:	e1a0c00d 	mov	ip, sp
    32c0:	e92dd810 	stmdb	sp!, {r4, fp, ip, lr, pc}
    32c4:	e59f3070 	ldr	r3, [pc, #112]	; 333c <HandleIRQ+0x80>
    32c8:	e59f0070 	ldr	r0, [pc, #112]	; 3340 <HandleIRQ+0x84>
    32cc:	e5934000 	ldr	r4, [r3]
    32d0:	e24cb004 	sub	fp, ip, #4	; 0x4
    32d4:	e1a01004 	mov	r1, r4
    32d8:	ebfff518 	bl	740 <Uart_Printf>
    32dc:	e3540013 	cmp	r4, #19	; 0x13
    32e0:	e59f005c 	ldr	r0, [pc, #92]	; 3344 <HandleIRQ+0x88>
    32e4:	0a000011 	beq	3330 <HandleIRQ+0x74>
    32e8:	ca00000a 	bgt	3318 <HandleIRQ+0x5c>
    32ec:	e3540009 	cmp	r4, #9	; 0x9
    32f0:	e59f0050 	ldr	r0, [pc, #80]	; 3348 <HandleIRQ+0x8c>
    32f4:	0a000004 	beq	330c <HandleIRQ+0x50>
    32f8:	ebfffa6b 	bl	1cac <IsrUsbd>
    32fc:	e59f0048 	ldr	r0, [pc, #72]	; 334c <HandleIRQ+0x90>
    3300:	e1a01004 	mov	r1, r4
    3304:	e91b6810 	ldmdb	fp, {r4, fp, sp, lr}
    3308:	eafff50c 	b	740 <Uart_Printf>
    330c:	ebfff50b 	bl	740 <Uart_Printf>
    3310:	e91b6810 	ldmdb	fp, {r4, fp, sp, lr}
    3314:	eafff657 	b	c78 <IsrWatchdog>
    3318:	e3540019 	cmp	r4, #25	; 0x19
    331c:	e59f002c 	ldr	r0, [pc, #44]	; 3350 <HandleIRQ+0x94>
    3320:	1afffff4 	bne	32f8 <HandleIRQ+0x3c>
    3324:	ebfff505 	bl	740 <Uart_Printf>
    3328:	e91b6810 	ldmdb	fp, {r4, fp, sp, lr}
    332c:	eafffa5e 	b	1cac <IsrUsbd>
    3330:	ebfff502 	bl	740 <Uart_Printf>
    3334:	e91b6810 	ldmdb	fp, {r4, fp, sp, lr}
    3338:	eafffb79 	b	2124 <IsrDma2>
    333c:	4a000014 	bmi	3394 <INTR_HandleErrorTrap+0x40>
    3340:	00005200 	andeq	r5, r0, r0, lsl #4
    3344:	0000521c 	andeq	r5, r0, ip, lsl r2
    3348:	00005228 	andeq	r5, r0, r8, lsr #4
    334c:	00005234 	andeq	r5, r0, r4, lsr r2
    3350:	00005254 	andeq	r5, r0, r4, asr r2

00003354 <INTR_HandleErrorTrap>:
    3354:	e1a0c00d 	mov	ip, sp
    3358:	e92dd810 	stmdb	sp!, {r4, fp, ip, lr, pc}
    335c:	e1a04000 	mov	r4, r0
    3360:	e24cb004 	sub	fp, ip, #4	; 0x4
    3364:	eb0000e4 	bl	36fc <GetCPSR>
    3368:	e1a01004 	mov	r1, r4
    336c:	e1a02000 	mov	r2, r0
    3370:	e59f0004 	ldr	r0, [pc, #4]	; 337c <INTR_HandleErrorTrap+0x28>
    3374:	ebfff4f1 	bl	740 <Uart_Printf>
    3378:	eafffffe 	b	3378 <INTR_HandleErrorTrap+0x24>
    337c:	00005260 	andeq	r5, r0, r0, ror #4
    3380:	e3a00453 	mov	r0, #1392508928	; 0x53000000
    3384:	e3a01000 	mov	r1, #0	; 0x0
    3388:	e5801000 	str	r1, [r0]
    338c:	e59f00a4 	ldr	r0, [pc, #164]	; 3438 <INTR_HandleErrorTrap+0xe4>
    3390:	e3e01000 	mvn	r1, #0	; 0x0
    3394:	e5801000 	str	r1, [r0]
    3398:	e59f009c 	ldr	r0, [pc, #156]	; 343c <INTR_HandleErrorTrap+0xe8>
    339c:	e59f109c 	ldr	r1, [pc, #156]	; 3440 <INTR_HandleErrorTrap+0xec>
    33a0:	e5801000 	str	r1, [r0]
    33a4:	e3a00313 	mov	r0, #1275068416	; 0x4c000000
    33a8:	e3e014ff 	mvn	r1, #-16777216	; 0xff000000
    33ac:	e5801000 	str	r1, [r0]
    33b0:	e59f108c 	ldr	r1, [pc, #140]	; 3444 <INTR_HandleErrorTrap+0xf0>
    33b4:	e591a000 	ldr	sl, [r1]
    33b8:	e31a0002 	tst	sl, #2	; 0x2
    33bc:	1a000006 	bne	33dc <INTR_HandleErrorTrap+0x88>
    33c0:	e59f0080 	ldr	r0, [pc, #128]	; 3448 <INTR_HandleErrorTrap+0xf4>
    33c4:	e3a01312 	mov	r1, #1207959552	; 0x48000000
    33c8:	e2802034 	add	r2, r0, #52	; 0x34
    33cc:	e4903004 	ldr	r3, [r0], #4
    33d0:	e4813004 	str	r3, [r1], #4
    33d4:	e1520000 	cmp	r2, r0
    33d8:	1afffffb 	bne	33cc <INTR_HandleErrorTrap+0x78>
    33dc:	e31a0002 	tst	sl, #2	; 0x2
    33e0:	0a000029 	beq	348c <call_main>
    33e4:	e59f1060 	ldr	r1, [pc, #96]	; 344c <INTR_HandleErrorTrap+0xf8>
    33e8:	e5910000 	ldr	r0, [r1]
    33ec:	e3c0080e 	bic	r0, r0, #917504	; 0xe0000
    33f0:	e5810000 	str	r0, [r1]
    33f4:	e59f004c 	ldr	r0, [pc, #76]	; 3448 <INTR_HandleErrorTrap+0xf4>
    33f8:	e3a01312 	mov	r1, #1207959552	; 0x48000000
    33fc:	e2802034 	add	r2, r0, #52	; 0x34
    3400:	e4903004 	ldr	r3, [r0], #4
    3404:	e4813004 	str	r3, [r1], #4
    3408:	e1520000 	cmp	r2, r0
    340c:	1afffffb 	bne	3400 <INTR_HandleErrorTrap+0xac>
    3410:	e3a01c01 	mov	r1, #256	; 0x100
    3414:	e2511001 	subs	r1, r1, #1	; 0x1
    3418:	1afffffd 	bne	3414 <INTR_HandleErrorTrap+0xc0>
    341c:	e59f002c 	ldr	r0, [pc, #44]	; 3450 <INTR_HandleErrorTrap+0xfc>
    3420:	e3a01080 	mov	r1, #128	; 0x80
    3424:	e5801000 	str	r1, [r0]
    3428:	e59f1024 	ldr	r1, [pc, #36]	; 3454 <INTR_HandleErrorTrap+0x100>
    342c:	e5916000 	ldr	r6, [r1]
    3430:	e1a0f006 	mov	pc, r6
    3434:	e1a00000 	nop			(mov r0,r0)
    3438:	4a000008 	bmi	3460 <INTR_HandleErrorTrap+0x10c>
    343c:	4a00001c 	bmi	34b4 <call_main+0x28>
    3440:	000003ff 	streqd	r0, [r0], -pc
    3444:	560000b4 	undefined
    3448:	00003458 	andeq	r3, r0, r8, asr r4
    344c:	56000080 	strpl	r0, [r0], -r0, lsl #1
    3450:	56000054 	undefined
    3454:	560000b8 	undefined
    3458:	22111120 	andcss	r1, r1, #8	; 0x8
    345c:	00000700 	andeq	r0, r0, r0, lsl #14
    3460:	00000700 	andeq	r0, r0, r0, lsl #14
    3464:	00000700 	andeq	r0, r0, r0, lsl #14
    3468:	00000700 	andeq	r0, r0, r0, lsl #14
    346c:	00000700 	andeq	r0, r0, r0, lsl #14
    3470:	00000700 	andeq	r0, r0, r0, lsl #14
    3474:	00018005 	andeq	r8, r1, r5
    3478:	00018005 	andeq	r8, r1, r5
    347c:	008e0459 	addeq	r0, lr, r9, asr r4
    3480:	00000032 	andeq	r0, r0, r2, lsr r0
    3484:	00000030 	andeq	r0, r0, r0, lsr r0
    3488:	00000030 	andeq	r0, r0, r0, lsr r0

0000348c <call_main>:
    348c:	e10f0000 	mrs	r0, CPSR
    3490:	e3c0001f 	bic	r0, r0, #31	; 0x1f
    3494:	e38010db 	orr	r1, r0, #219	; 0xdb
    3498:	e12ff001 	msr	CPSR_fsxc, r1
    349c:	e59fd0cc 	ldr	sp, [pc, #204]	; 3570 <call_main+0xe4>
    34a0:	e38010d7 	orr	r1, r0, #215	; 0xd7
    34a4:	e12ff001 	msr	CPSR_fsxc, r1
    34a8:	e59fd0c4 	ldr	sp, [pc, #196]	; 3574 <call_main+0xe8>
    34ac:	e38010d2 	orr	r1, r0, #210	; 0xd2
    34b0:	e12ff001 	msr	CPSR_fsxc, r1
    34b4:	e59fd0bc 	ldr	sp, [pc, #188]	; 3578 <call_main+0xec>
    34b8:	e38010d1 	orr	r1, r0, #209	; 0xd1
    34bc:	e12ff001 	msr	CPSR_fsxc, r1
    34c0:	e59fd0b4 	ldr	sp, [pc, #180]	; 357c <call_main+0xf0>
    34c4:	e3c000df 	bic	r0, r0, #223	; 0xdf
    34c8:	e3801013 	orr	r1, r0, #19	; 0x13
    34cc:	e12ff001 	msr	CPSR_fsxc, r1
    34d0:	e59fd0a8 	ldr	sp, [pc, #168]	; 3580 <call_main+0xf4>
    34d4:	e3a0b000 	mov	fp, #0	; 0x0
    34d8:	e3a00000 	mov	r0, #0	; 0x0
    34dc:	e3a01000 	mov	r1, #0	; 0x0
    34e0:	ebffff6c 	bl	3298 <_InitKernel>
    34e4:	32000000 	andcc	r0, r0, #0	; 0x0
    34e8:	e92d500f 	stmdb	sp!, {r0, r1, r2, r3, ip, lr}
    34ec:	e3a00001 	mov	r0, #1	; 0x1
    34f0:	ebffff97 	bl	3354 <INTR_HandleErrorTrap>
    34f4:	e8fd900f 	ldmia	sp!, {r0, r1, r2, r3, ip, pc}^
    34f8:	e92d500f 	stmdb	sp!, {r0, r1, r2, r3, ip, lr}
    34fc:	e3a00002 	mov	r0, #2	; 0x2
    3500:	ebffff93 	bl	3354 <INTR_HandleErrorTrap>
    3504:	e8fd900f 	ldmia	sp!, {r0, r1, r2, r3, ip, pc}^
    3508:	e92d500f 	stmdb	sp!, {r0, r1, r2, r3, ip, lr}
    350c:	e3a00003 	mov	r0, #3	; 0x3
    3510:	ebffff8f 	bl	3354 <INTR_HandleErrorTrap>
    3514:	e8fd900f 	ldmia	sp!, {r0, r1, r2, r3, ip, pc}^
    3518:	e92d500f 	stmdb	sp!, {r0, r1, r2, r3, ip, lr}
    351c:	e3a00004 	mov	r0, #4	; 0x4
    3520:	ebffff8b 	bl	3354 <INTR_HandleErrorTrap>
    3524:	e8fd900f 	ldmia	sp!, {r0, r1, r2, r3, ip, pc}^
    3528:	e92d500f 	stmdb	sp!, {r0, r1, r2, r3, ip, lr}
    352c:	e3a00005 	mov	r0, #5	; 0x5
    3530:	ebffff87 	bl	3354 <INTR_HandleErrorTrap>
    3534:	e8fd900f 	ldmia	sp!, {r0, r1, r2, r3, ip, pc}^
    3538:	e24ee004 	sub	lr, lr, #4	; 0x4
    353c:	e92d500f 	stmdb	sp!, {r0, r1, r2, r3, ip, lr}
    3540:	e14f1000 	mrs	r1, SPSR
    3544:	e92d0002 	stmdb	sp!, {r1}
    3548:	ebffff5b 	bl	32bc <HandleIRQ>
    354c:	e8bd0002 	ldmia	sp!, {r1}
    3550:	e169f001 	msr	SPSR_fc, r1
    3554:	e8bd500f 	ldmia	sp!, {r0, r1, r2, r3, ip, lr}
    3558:	e1b0f00e 	movs	pc, lr
    355c:	e92d400f 	stmdb	sp!, {r0, r1, r2, r3, lr}
    3560:	e3a00006 	mov	r0, #6	; 0x6
    3564:	ebffff7a 	bl	3354 <INTR_HandleErrorTrap>
    3568:	e8bd400f 	ldmia	sp!, {r0, r1, r2, r3, lr}
    356c:	e25ef004 	subs	pc, lr, #4	; 0x4
    3570:	33ff5400 	mvnccs	r5, #0	; 0x0
    3574:	33ff6400 	mvnccs	r6, #0	; 0x0
    3578:	33ff7c00 	mvnccs	r7, #0	; 0x0
    357c:	33ff8000 	mvnccs	r8, #0	; 0x0
    3580:	33ff5000 	mvnccs	r5, #0	; 0x0

00003584 <MMU_EnableICache>:
    3584:	ee110f10 	mrc	15, 0, r0, cr1, cr0, {0}
    3588:	e3800a01 	orr	r0, r0, #4096	; 0x1000
    358c:	ee010f10 	mcr	15, 0, r0, cr1, cr0, {0}
    3590:	e1a0f00e 	mov	pc, lr

00003594 <MMU_DisableICache>:
    3594:	ee110f10 	mrc	15, 0, r0, cr1, cr0, {0}
    3598:	e3c00a01 	bic	r0, r0, #4096	; 0x1000
    359c:	ee010f10 	mcr	15, 0, r0, cr1, cr0, {0}
    35a0:	e1a0f00e 	mov	pc, lr

000035a4 <MMU_EnableDCache>:
    35a4:	ee110f10 	mrc	15, 0, r0, cr1, cr0, {0}
    35a8:	e3800004 	orr	r0, r0, #4	; 0x4
    35ac:	ee010f10 	mcr	15, 0, r0, cr1, cr0, {0}
    35b0:	e1a0f00e 	mov	pc, lr

000035b4 <MMU_DisableDCache>:
    35b4:	ee110f10 	mrc	15, 0, r0, cr1, cr0, {0}
    35b8:	e3c00004 	bic	r0, r0, #4	; 0x4
    35bc:	ee010f10 	mcr	15, 0, r0, cr1, cr0, {0}
    35c0:	e1a0f00e 	mov	pc, lr

000035c4 <MMU_EnableAlignFault>:
    35c4:	ee110f10 	mrc	15, 0, r0, cr1, cr0, {0}
    35c8:	e3800002 	orr	r0, r0, #2	; 0x2
    35cc:	ee010f10 	mcr	15, 0, r0, cr1, cr0, {0}
    35d0:	e1a0f00e 	mov	pc, lr

000035d4 <MMU_DisableAlignFault>:
    35d4:	ee110f10 	mrc	15, 0, r0, cr1, cr0, {0}
    35d8:	e3c00002 	bic	r0, r0, #2	; 0x2
    35dc:	ee010f10 	mcr	15, 0, r0, cr1, cr0, {0}
    35e0:	e1a0f00e 	mov	pc, lr

000035e4 <MMU_EnableMMU>:
    35e4:	ee110f10 	mrc	15, 0, r0, cr1, cr0, {0}
    35e8:	e3800001 	orr	r0, r0, #1	; 0x1
    35ec:	ee010f10 	mcr	15, 0, r0, cr1, cr0, {0}
    35f0:	e1a0f00e 	mov	pc, lr

000035f4 <MMU_DisableMMU>:
    35f4:	ee110f10 	mrc	15, 0, r0, cr1, cr0, {0}
    35f8:	e3c00001 	bic	r0, r0, #1	; 0x1
    35fc:	ee010f10 	mcr	15, 0, r0, cr1, cr0, {0}
    3600:	e1a0f00e 	mov	pc, lr

00003604 <MMU_SetFastBusMode>:
    3604:	ee110f10 	mrc	15, 0, r0, cr1, cr0, {0}
    3608:	e3c00103 	bic	r0, r0, #-1073741824	; 0xc0000000
    360c:	ee010f10 	mcr	15, 0, r0, cr1, cr0, {0}
    3610:	e1a0f00e 	mov	pc, lr

00003614 <MMU_SetAsyncBusMode>:
    3614:	ee110f10 	mrc	15, 0, r0, cr1, cr0, {0}
    3618:	e3800103 	orr	r0, r0, #-1073741824	; 0xc0000000
    361c:	ee010f10 	mcr	15, 0, r0, cr1, cr0, {0}
    3620:	e1a0f00e 	mov	pc, lr

00003624 <MMU_SetTTBase>:
    3624:	ee020f10 	mcr	15, 0, r0, cr2, cr0, {0}
    3628:	e1a0f00e 	mov	pc, lr

0000362c <MMU_SetDomain>:
    362c:	ee030f10 	mcr	15, 0, r0, cr3, cr0, {0}
    3630:	e1a0f00e 	mov	pc, lr

00003634 <MMU_InvalidateIDCache>:
    3634:	ee070f17 	mcr	15, 0, r0, cr7, cr7, {0}
    3638:	e1a0f00e 	mov	pc, lr

0000363c <MMU_InvalidateICache>:
    363c:	ee070f15 	mcr	15, 0, r0, cr7, cr5, {0}
    3640:	e1a0f00e 	mov	pc, lr

00003644 <MMU_InvalidateICacheMVA>:
    3644:	ee070f35 	mcr	15, 0, r0, cr7, cr5, {1}
    3648:	e1a0f00e 	mov	pc, lr

0000364c <MMU_PrefetchICacheMVA>:
    364c:	ee070f3d 	mcr	15, 0, r0, cr7, cr13, {1}
    3650:	e1a0f00e 	mov	pc, lr

00003654 <MMU_InvalidateDCache>:
    3654:	ee070f16 	mcr	15, 0, r0, cr7, cr6, {0}
    3658:	e1a0f00e 	mov	pc, lr

0000365c <MMU_InvalidateDCacheMVA>:
    365c:	ee070f36 	mcr	15, 0, r0, cr7, cr6, {1}
    3660:	e1a0f00e 	mov	pc, lr

00003664 <MMU_CleanDCacheMVA>:
    3664:	ee070f3a 	mcr	15, 0, r0, cr7, cr10, {1}
    3668:	e1a0f00e 	mov	pc, lr

0000366c <MMU_CleanInvalidateDCacheMVA>:
    366c:	ee070f3e 	mcr	15, 0, r0, cr7, cr14, {1}
    3670:	e1a0f00e 	mov	pc, lr

00003674 <MMU_CleanDCacheIndex>:
    3674:	ee070f5a 	mcr	15, 0, r0, cr7, cr10, {2}
    3678:	e1a0f00e 	mov	pc, lr

0000367c <MMU_CleanInvalidateDCacheIndex>:
    367c:	ee070f5e 	mcr	15, 0, r0, cr7, cr14, {2}
    3680:	e1a0f00e 	mov	pc, lr

00003684 <MMU_WaitForInterrupt>:
    3684:	ee070f90 	mcr	15, 0, r0, cr7, cr0, {4}
    3688:	e1a0f00e 	mov	pc, lr

0000368c <MMU_InvalidateTLB>:
    368c:	ee080f17 	mcr	15, 0, r0, cr8, cr7, {0}
    3690:	e1a0f00e 	mov	pc, lr

00003694 <MMU_InvalidateITLB>:
    3694:	ee080f15 	mcr	15, 0, r0, cr8, cr5, {0}
    3698:	e1a0f00e 	mov	pc, lr

0000369c <MMU_InvalidateITLBMVA>:
    369c:	ee080f35 	mcr	15, 0, r0, cr8, cr5, {1}
    36a0:	e1a0f00e 	mov	pc, lr

000036a4 <MMU_InvalidateDTLB>:
    36a4:	ee080f16 	mcr	15, 0, r0, cr8, cr6, {0}
    36a8:	e1a0f00e 	mov	pc, lr

000036ac <MMU_InvalidateDTLBMVA>:
    36ac:	ee080f36 	mcr	15, 0, r0, cr8, cr6, {1}
    36b0:	e1a0f00e 	mov	pc, lr

000036b4 <MMU_SetDCacheLockdownBase>:
    36b4:	ee090f10 	mcr	15, 0, r0, cr9, cr0, {0}
    36b8:	e1a0f00e 	mov	pc, lr

000036bc <MMU_SetICacheLockdownBase>:
    36bc:	ee090f30 	mcr	15, 0, r0, cr9, cr0, {1}
    36c0:	e1a0f00e 	mov	pc, lr

000036c4 <MMU_SetDTLBLockdown>:
    36c4:	ee0a0f10 	mcr	15, 0, r0, cr10, cr0, {0}
    36c8:	e1a0f00e 	mov	pc, lr

000036cc <MMU_SetITLBLockdown>:
    36cc:	ee0a0f30 	mcr	15, 0, r0, cr10, cr0, {1}
    36d0:	e1a0f00e 	mov	pc, lr

000036d4 <MMU_SetProcessId>:
    36d4:	ee0d0f10 	mcr	15, 0, r0, cr13, cr0, {0}
    36d8:	e1a0f00e 	mov	pc, lr

000036dc <INTR_ON>:
    36dc:	e10f0000 	mrs	r0, CPSR
    36e0:	e3c00080 	bic	r0, r0, #128	; 0x80
    36e4:	e129f000 	msr	CPSR_fc, r0
    36e8:	e1a0f00e 	mov	pc, lr

000036ec <INTR_OFF>:
    36ec:	e10f0000 	mrs	r0, CPSR
    36f0:	e38000c0 	orr	r0, r0, #192	; 0xc0
    36f4:	e129f000 	msr	CPSR_fc, r0
    36f8:	e1a0f00e 	mov	pc, lr

000036fc <GetCPSR>:
    36fc:	e10f0000 	mrs	r0, CPSR
    3700:	e1a0f00e 	mov	pc, lr

00003704 <memset>:
    3704:	eaffffff 	b	3708 <mem_set>

00003708 <mem_set>:
    3708:	e1a03000 	mov	r3, r0
    370c:	e3520010 	cmp	r2, #16	; 0x10
    3710:	ba00003d 	blt	380c <mem_set+0x104>
    3714:	e213c003 	ands	ip, r3, #3	; 0x3
    3718:	0a000005 	beq	3734 <mem_set+0x2c>
    371c:	e35c0002 	cmp	ip, #2	; 0x2
    3720:	b4c31001 	strltb	r1, [r3], #1
    3724:	d4c31001 	strleb	r1, [r3], #1
    3728:	e4c31001 	strb	r1, [r3], #1
    372c:	e26cc004 	rsb	ip, ip, #4	; 0x4
    3730:	e042200c 	sub	r2, r2, ip
    3734:	e1811401 	orr	r1, r1, r1, lsl #8
    3738:	e1811801 	orr	r1, r1, r1, lsl #16
    373c:	e3520c01 	cmp	r2, #256	; 0x100
    3740:	ba00001d 	blt	37bc <mem_set+0xb4>
    3744:	e92d4030 	stmdb	sp!, {r4, r5, lr}
    3748:	e1a04001 	mov	r4, r1
    374c:	e1a05001 	mov	r5, r1
    3750:	e1a0e001 	mov	lr, r1
    3754:	e1a0c322 	mov	ip, r2, lsr #6
    3758:	e042230c 	sub	r2, r2, ip, lsl #6
    375c:	e8a34032 	stmia	r3!, {r1, r4, r5, lr}
    3760:	e8a34032 	stmia	r3!, {r1, r4, r5, lr}
    3764:	e8a34032 	stmia	r3!, {r1, r4, r5, lr}
    3768:	e8a34032 	stmia	r3!, {r1, r4, r5, lr}
    376c:	e25cc001 	subs	ip, ip, #1	; 0x1
    3770:	1afffff9 	bne	375c <mem_set+0x54>
    3774:	e3320000 	teq	r2, #0	; 0x0
    3778:	08bd8030 	ldmeqia	sp!, {r4, r5, pc}
    377c:	e3120020 	tst	r2, #32	; 0x20
    3780:	18a34032 	stmneia	r3!, {r1, r4, r5, lr}
    3784:	18a34032 	stmneia	r3!, {r1, r4, r5, lr}
    3788:	e3120010 	tst	r2, #16	; 0x10
    378c:	18a34032 	stmneia	r3!, {r1, r4, r5, lr}
    3790:	e8bd0030 	ldmia	sp!, {r4, r5}
    3794:	e3120008 	tst	r2, #8	; 0x8
    3798:	18a34002 	stmneia	r3!, {r1, lr}
    379c:	e3120004 	tst	r2, #4	; 0x4
    37a0:	14831004 	strne	r1, [r3], #4
    37a4:	e3120002 	tst	r2, #2	; 0x2
    37a8:	14c31001 	strneb	r1, [r3], #1
    37ac:	14c31001 	strneb	r1, [r3], #1
    37b0:	e3120001 	tst	r2, #1	; 0x1
    37b4:	14c31001 	strneb	r1, [r3], #1
    37b8:	e8bd8000 	ldmia	sp!, {pc}
    37bc:	e1b0c1a2 	movs	ip, r2, lsr #3
    37c0:	0afffff3 	beq	3794 <mem_set+0x8c>
    37c4:	e042218c 	sub	r2, r2, ip, lsl #3
    37c8:	e92d4000 	stmdb	sp!, {lr}
    37cc:	e1a0e001 	mov	lr, r1
    37d0:	e25cc004 	subs	ip, ip, #4	; 0x4
    37d4:	a8a34002 	stmgeia	r3!, {r1, lr}
    37d8:	a8a34002 	stmgeia	r3!, {r1, lr}
    37dc:	a8a34002 	stmgeia	r3!, {r1, lr}
    37e0:	a8a34002 	stmgeia	r3!, {r1, lr}
    37e4:	a25cc004 	subges	ip, ip, #4	; 0x4
    37e8:	aafffff9 	bge	37d4 <mem_set+0xcc>
    37ec:	e31c0002 	tst	ip, #2	; 0x2
    37f0:	18a34002 	stmneia	r3!, {r1, lr}
    37f4:	18a34002 	stmneia	r3!, {r1, lr}
    37f8:	e31c0001 	tst	ip, #1	; 0x1
    37fc:	18a34002 	stmneia	r3!, {r1, lr}
    3800:	e3320000 	teq	r2, #0	; 0x0
    3804:	08bd8000 	ldmeqia	sp!, {pc}
    3808:	eaffffe1 	b	3794 <mem_set+0x8c>
    380c:	e2522001 	subs	r2, r2, #1	; 0x1
    3810:	a4c31001 	strgeb	r1, [r3], #1
    3814:	cafffffc 	bgt	380c <mem_set+0x104>
    3818:	e1a0f00e 	mov	pc, lr

0000381c <str_rchr>:
    381c:	e92d4000 	stmdb	sp!, {lr}
    3820:	e3a03000 	mov	r3, #0	; 0x0
    3824:	e4d02001 	ldrb	r2, [r0], #1
    3828:	e1320001 	teq	r2, r1
    382c:	01a03000 	moveq	r3, r0
    3830:	e3320000 	teq	r2, #0	; 0x0
    3834:	1afffffa 	bne	3824 <str_rchr+0x8>
    3838:	e1a00003 	mov	r0, r3
    383c:	e8bd8000 	ldmia	sp!, {pc}

00003840 <str_chr>:
    3840:	e92d4000 	stmdb	sp!, {lr}
    3844:	e3a03000 	mov	r3, #0	; 0x0
    3848:	e4d02001 	ldrb	r2, [r0], #1
    384c:	e1320001 	teq	r2, r1
    3850:	13320000 	teqne	r2, #0	; 0x0
    3854:	1afffffb 	bne	3848 <str_chr+0x8>
    3858:	e3320000 	teq	r2, #0	; 0x0
    385c:	03a00000 	moveq	r0, #0	; 0x0
    3860:	12400001 	subne	r0, r0, #1	; 0x1
    3864:	e8bd8000 	ldmia	sp!, {pc}

00003868 <mem_chr>:
    3868:	e92d4000 	stmdb	sp!, {lr}
    386c:	e4d03001 	ldrb	r3, [r0], #1
    3870:	e1330001 	teq	r3, r1
    3874:	0a000001 	beq	3880 <mem_chr+0x18>
    3878:	e2522001 	subs	r2, r2, #1	; 0x1
    387c:	5afffffa 	bpl	386c <mem_chr+0x4>
    3880:	13a00000 	movne	r0, #0	; 0x0
    3884:	02400001 	subeq	r0, r0, #1	; 0x1
    3888:	e8bd8000 	ldmia	sp!, {pc}
    388c:	e5c01000 	strb	r1, [r0]
    3890:	e3a00001 	mov	r0, #1	; 0x1
    3894:	e1a0f00e 	mov	pc, lr
    3898:	e3a02000 	mov	r2, #0	; 0x0
    389c:	e1510002 	cmp	r1, r2
    38a0:	0a000008 	beq	38c8 <mem_chr+0x60>
    38a4:	e5d13000 	ldrb	r3, [r1]
    38a8:	e1530002 	cmp	r3, r2
    38ac:	0a000005 	beq	38c8 <mem_chr+0x60>
    38b0:	e5d13000 	ldrb	r3, [r1]
    38b4:	e4c03001 	strb	r3, [r0], #1
    38b8:	e2822001 	add	r2, r2, #1	; 0x1
    38bc:	e5f13001 	ldrb	r3, [r1, #1]!
    38c0:	e3530000 	cmp	r3, #0	; 0x0
    38c4:	1afffff9 	bne	38b0 <mem_chr+0x48>
    38c8:	e1a00002 	mov	r0, r2
    38cc:	e1a0f00e 	mov	pc, lr
    38d0:	e3a0c000 	mov	ip, #0	; 0x0
    38d4:	e151000c 	cmp	r1, ip
    38d8:	0a000009 	beq	3904 <mem_chr+0x9c>
    38dc:	e252c000 	subs	ip, r2, #0	; 0x0
    38e0:	0a000007 	beq	3904 <mem_chr+0x9c>
    38e4:	ea000003 	b	38f8 <mem_chr+0x90>
    38e8:	e4d13001 	ldrb	r3, [r1], #1
    38ec:	e4c03001 	strb	r3, [r0], #1
    38f0:	e2522001 	subs	r2, r2, #1	; 0x1
    38f4:	0a000002 	beq	3904 <mem_chr+0x9c>
    38f8:	e5d13000 	ldrb	r3, [r1]
    38fc:	e3530000 	cmp	r3, #0	; 0x0
    3900:	1afffff8 	bne	38e8 <mem_chr+0x80>
    3904:	e1a0000c 	mov	r0, ip
    3908:	e1a0f00e 	mov	pc, lr
    390c:	e1a03002 	mov	r3, r2
    3910:	e3520000 	cmp	r2, #0	; 0x0
    3914:	0a000002 	beq	3924 <mem_chr+0xbc>
    3918:	e4c01001 	strb	r1, [r0], #1
    391c:	e2533001 	subs	r3, r3, #1	; 0x1
    3920:	1afffffc 	bne	3918 <mem_chr+0xb0>
    3924:	e1a00002 	mov	r0, r2
    3928:	e1a0f00e 	mov	pc, lr

0000392c <_out_stream>:
    392c:	e1a0c00d 	mov	ip, sp
    3930:	e92ddff0 	stmdb	sp!, {r4, r5, r6, r7, r8, r9, sl, fp, ip, lr, pc}
    3934:	e24cb004 	sub	fp, ip, #4	; 0x4
    3938:	e24dd040 	sub	sp, sp, #64	; 0x40
    393c:	e1a09000 	mov	r9, r0
    3940:	e1a07002 	mov	r7, r2
    3944:	e3a02000 	mov	r2, #0	; 0x0
    3948:	e50b2068 	str	r2, [fp, -#104]
    394c:	e1a06001 	mov	r6, r1
    3950:	e50b2050 	str	r2, [fp, -#80]
    3954:	e1a01006 	mov	r1, r6
    3958:	e5d65000 	ldrb	r5, [r6]
    395c:	ea000000 	b	3964 <_out_stream+0x38>
    3960:	e5f65001 	ldrb	r5, [r6, #1]!
    3964:	e3550000 	cmp	r5, #0	; 0x0
    3968:	0a000001 	beq	3974 <_out_stream+0x48>
    396c:	e3550025 	cmp	r5, #37	; 0x25
    3970:	1afffffa 	bne	3960 <_out_stream+0x34>
    3974:	e0564001 	subs	r4, r6, r1
    3978:	0a000006 	beq	3998 <_out_stream+0x6c>
    397c:	e1a00009 	mov	r0, r9
    3980:	e1a02004 	mov	r2, r4
    3984:	ebffffd1 	bl	38d0 <mem_chr+0x68>
    3988:	e0899000 	add	r9, r9, r0
    398c:	e51b3050 	ldr	r3, [fp, -#80]
    3990:	e0833004 	add	r3, r3, r4
    3994:	e50b3050 	str	r3, [fp, -#80]
    3998:	e3550000 	cmp	r5, #0	; 0x0
    399c:	0a0001a3 	beq	4030 <_out_stream+0x704>
    39a0:	e2866001 	add	r6, r6, #1	; 0x1
    39a4:	e3a08000 	mov	r8, #0	; 0x0
    39a8:	e50b8060 	str	r8, [fp, -#96]
    39ac:	e50b8054 	str	r8, [fp, -#84]
    39b0:	e3e01000 	mvn	r1, #0	; 0x0
    39b4:	e50b1058 	str	r1, [fp, -#88]
    39b8:	e50b805c 	str	r8, [fp, -#92]
    39bc:	e4d65001 	ldrb	r5, [r6], #1
    39c0:	e2453020 	sub	r3, r5, #32	; 0x20
    39c4:	e3530058 	cmp	r3, #88	; 0x58
    39c8:	979ff103 	ldrls	pc, [pc, r3, lsl #2]
    39cc:	ea000139 	b	3eb8 <_out_stream+0x58c>
    39d0:	00003b34 	andeq	r3, r0, r4, lsr fp
    39d4:	00003eb8 	streqh	r3, [r0], -r8
    39d8:	00003eb8 	streqh	r3, [r0], -r8
    39dc:	00003b48 	andeq	r3, r0, r8, asr #22
    39e0:	00003eb8 	streqh	r3, [r0], -r8
    39e4:	00003eb8 	streqh	r3, [r0], -r8
    39e8:	00003eb8 	streqh	r3, [r0], -r8
    39ec:	00003eb8 	streqh	r3, [r0], -r8
    39f0:	00003eb8 	streqh	r3, [r0], -r8
    39f4:	00003eb8 	streqh	r3, [r0], -r8
    39f8:	00003b50 	andeq	r3, r0, r0, asr fp
    39fc:	00003b74 	andeq	r3, r0, r4, ror fp
    3a00:	00003eb8 	streqh	r3, [r0], -r8
    3a04:	00003b68 	andeq	r3, r0, r8, ror #22
    3a08:	00003b80 	andeq	r3, r0, r0, lsl #23
    3a0c:	00003eb8 	streqh	r3, [r0], -r8
    3a10:	00003bdc 	ldreqd	r3, [r0], -ip
    3a14:	00003be8 	andeq	r3, r0, r8, ror #23
    3a18:	00003be8 	andeq	r3, r0, r8, ror #23
    3a1c:	00003be8 	andeq	r3, r0, r8, ror #23
    3a20:	00003be8 	andeq	r3, r0, r8, ror #23
    3a24:	00003be8 	andeq	r3, r0, r8, ror #23
    3a28:	00003be8 	andeq	r3, r0, r8, ror #23
    3a2c:	00003be8 	andeq	r3, r0, r8, ror #23
    3a30:	00003be8 	andeq	r3, r0, r8, ror #23
    3a34:	00003be8 	andeq	r3, r0, r8, ror #23
    3a38:	00003eb8 	streqh	r3, [r0], -r8
    3a3c:	00003eb8 	streqh	r3, [r0], -r8
    3a40:	00003eb8 	streqh	r3, [r0], -r8
    3a44:	00003eb8 	streqh	r3, [r0], -r8
    3a48:	00003eb8 	streqh	r3, [r0], -r8
    3a4c:	00003eb8 	streqh	r3, [r0], -r8
    3a50:	00003eb8 	streqh	r3, [r0], -r8
    3a54:	00003eb8 	streqh	r3, [r0], -r8
    3a58:	00003eb8 	streqh	r3, [r0], -r8
    3a5c:	00003eb8 	streqh	r3, [r0], -r8
    3a60:	00003c44 	andeq	r3, r0, r4, asr #24
    3a64:	00003eb8 	streqh	r3, [r0], -r8
    3a68:	00003eb8 	streqh	r3, [r0], -r8
    3a6c:	00003eb8 	streqh	r3, [r0], -r8
    3a70:	00003eb8 	streqh	r3, [r0], -r8
    3a74:	00003eb8 	streqh	r3, [r0], -r8
    3a78:	00003eb8 	streqh	r3, [r0], -r8
    3a7c:	00003eb8 	streqh	r3, [r0], -r8
    3a80:	00003eb8 	streqh	r3, [r0], -r8
    3a84:	00003eb8 	streqh	r3, [r0], -r8
    3a88:	00003eb8 	streqh	r3, [r0], -r8
    3a8c:	00003cb0 	streqh	r3, [r0], -r0
    3a90:	00003eb8 	streqh	r3, [r0], -r8
    3a94:	00003eb8 	streqh	r3, [r0], -r8
    3a98:	00003eb8 	streqh	r3, [r0], -r8
    3a9c:	00003eb8 	streqh	r3, [r0], -r8
    3aa0:	00003eb8 	streqh	r3, [r0], -r8
    3aa4:	00003d54 	andeq	r3, r0, r4, asr sp
    3aa8:	00003eb8 	streqh	r3, [r0], -r8
    3aac:	00003eb8 	streqh	r3, [r0], -r8
    3ab0:	00003d7c 	andeq	r3, r0, ip, ror sp
    3ab4:	00003eb8 	streqh	r3, [r0], -r8
    3ab8:	00003eb8 	streqh	r3, [r0], -r8
    3abc:	00003eb8 	streqh	r3, [r0], -r8
    3ac0:	00003eb8 	streqh	r3, [r0], -r8
    3ac4:	00003eb8 	streqh	r3, [r0], -r8
    3ac8:	00003eb8 	streqh	r3, [r0], -r8
    3acc:	00003eb8 	streqh	r3, [r0], -r8
    3ad0:	00003eb8 	streqh	r3, [r0], -r8
    3ad4:	00003eb8 	streqh	r3, [r0], -r8
    3ad8:	00003eb8 	streqh	r3, [r0], -r8
    3adc:	00003c20 	andeq	r3, r0, r0, lsr #24
    3ae0:	00003c48 	andeq	r3, r0, r8, asr #24
    3ae4:	00003eb8 	streqh	r3, [r0], -r8
    3ae8:	00003eb8 	streqh	r3, [r0], -r8
    3aec:	00003eb8 	streqh	r3, [r0], -r8
    3af0:	00003c10 	andeq	r3, r0, r0, lsl ip
    3af4:	00003c48 	andeq	r3, r0, r8, asr #24
    3af8:	00003eb8 	streqh	r3, [r0], -r8
    3afc:	00003eb8 	streqh	r3, [r0], -r8
    3b00:	00003c18 	andeq	r3, r0, r8, lsl ip
    3b04:	00003eb8 	streqh	r3, [r0], -r8
    3b08:	00003c7c 	andeq	r3, r0, ip, ror ip
    3b0c:	00003cb4 	streqh	r3, [r0], -r4
    3b10:	00003cd8 	ldreqd	r3, [r0], -r8
    3b14:	00003eb8 	streqh	r3, [r0], -r8
    3b18:	00003eb8 	streqh	r3, [r0], -r8
    3b1c:	00003cec 	andeq	r3, r0, ip, ror #25
    3b20:	00003eb8 	streqh	r3, [r0], -r8
    3b24:	00003d58 	andeq	r3, r0, r8, asr sp
    3b28:	00003eb8 	streqh	r3, [r0], -r8
    3b2c:	00003eb8 	streqh	r3, [r0], -r8
    3b30:	00003d7c 	andeq	r3, r0, ip, ror sp
    3b34:	e51b205c 	ldr	r2, [fp, -#92]
    3b38:	e3520000 	cmp	r2, #0	; 0x0
    3b3c:	03a03020 	moveq	r3, #32	; 0x20
    3b40:	050b305c 	streq	r3, [fp, -#92]
    3b44:	eaffff9c 	b	39bc <_out_stream+0x90>
    3b48:	e3888004 	orr	r8, r8, #4	; 0x4
    3b4c:	eaffff9a 	b	39bc <_out_stream+0x90>
    3b50:	e4971004 	ldr	r1, [r7], #4
    3b54:	e50b1054 	str	r1, [fp, -#84]
    3b58:	e3510000 	cmp	r1, #0	; 0x0
    3b5c:	aaffff96 	bge	39bc <_out_stream+0x90>
    3b60:	e2611000 	rsb	r1, r1, #0	; 0x0
    3b64:	e50b1054 	str	r1, [fp, -#84]
    3b68:	e3888010 	orr	r8, r8, #16	; 0x10
    3b6c:	e3c88020 	bic	r8, r8, #32	; 0x20
    3b70:	eaffff91 	b	39bc <_out_stream+0x90>
    3b74:	e3a0202b 	mov	r2, #43	; 0x2b
    3b78:	e50b205c 	str	r2, [fp, -#92]
    3b7c:	eaffff8e 	b	39bc <_out_stream+0x90>
    3b80:	e4d65001 	ldrb	r5, [r6], #1
    3b84:	e355002a 	cmp	r5, #42	; 0x2a
    3b88:	1a000005 	bne	3ba4 <_out_stream+0x278>
    3b8c:	e4974004 	ldr	r4, [r7], #4
    3b90:	e3e03000 	mvn	r3, #0	; 0x0
    3b94:	e1540003 	cmp	r4, r3
    3b98:	b1a04003 	movlt	r4, r3
    3b9c:	e50b4058 	str	r4, [fp, -#88]
    3ba0:	eaffff85 	b	39bc <_out_stream+0x90>
    3ba4:	e3a04000 	mov	r4, #0	; 0x0
    3ba8:	ea000003 	b	3bbc <_out_stream+0x290>
    3bac:	e0843104 	add	r3, r4, r4, lsl #2
    3bb0:	e0853083 	add	r3, r5, r3, lsl #1
    3bb4:	e2434030 	sub	r4, r3, #48	; 0x30
    3bb8:	e4d65001 	ldrb	r5, [r6], #1
    3bbc:	e2453030 	sub	r3, r5, #48	; 0x30
    3bc0:	e3530009 	cmp	r3, #9	; 0x9
    3bc4:	9afffff8 	bls	3bac <_out_stream+0x280>
    3bc8:	e3e03000 	mvn	r3, #0	; 0x0
    3bcc:	e1540003 	cmp	r4, r3
    3bd0:	b1a04003 	movlt	r4, r3
    3bd4:	e50b4058 	str	r4, [fp, -#88]
    3bd8:	eaffff78 	b	39c0 <_out_stream+0x94>
    3bdc:	e3180010 	tst	r8, #16	; 0x10
    3be0:	03888020 	orreq	r8, r8, #32	; 0x20
    3be4:	eaffff74 	b	39bc <_out_stream+0x90>
    3be8:	e3a04000 	mov	r4, #0	; 0x0
    3bec:	e0843104 	add	r3, r4, r4, lsl #2
    3bf0:	e0853083 	add	r3, r5, r3, lsl #1
    3bf4:	e2434030 	sub	r4, r3, #48	; 0x30
    3bf8:	e4d65001 	ldrb	r5, [r6], #1
    3bfc:	e2453030 	sub	r3, r5, #48	; 0x30
    3c00:	e3530009 	cmp	r3, #9	; 0x9
    3c04:	9afffff8 	bls	3bec <_out_stream+0x2c0>
    3c08:	e50b4054 	str	r4, [fp, -#84]
    3c0c:	eaffff6b 	b	39c0 <_out_stream+0x94>
    3c10:	e3888002 	orr	r8, r8, #2	; 0x2
    3c14:	eaffff68 	b	39bc <_out_stream+0x90>
    3c18:	e3888001 	orr	r8, r8, #1	; 0x1
    3c1c:	eaffff66 	b	39bc <_out_stream+0x90>
    3c20:	e24ba04c 	sub	sl, fp, #76	; 0x4c
    3c24:	e2877004 	add	r7, r7, #4	; 0x4
    3c28:	e5573004 	ldrb	r3, [r7, -#4]
    3c2c:	e54b304c 	strb	r3, [fp, -#76]
    3c30:	e3a03001 	mov	r3, #1	; 0x1
    3c34:	e50b3068 	str	r3, [fp, -#104]
    3c38:	e3a01000 	mov	r1, #0	; 0x0
    3c3c:	e50b105c 	str	r1, [fp, -#92]
    3c40:	ea0000a4 	b	3ed8 <_out_stream+0x5ac>
    3c44:	e3888001 	orr	r8, r8, #1	; 0x1
    3c48:	e3180001 	tst	r8, #1	; 0x1
    3c4c:	14971004 	ldrne	r1, [r7], #4
    3c50:	1a000003 	bne	3c64 <_out_stream+0x338>
    3c54:	e3180002 	tst	r8, #2	; 0x2
    3c58:	12877004 	addne	r7, r7, #4	; 0x4
    3c5c:	115710f4 	ldrnesh	r1, [r7, -#4]
    3c60:	04971004 	ldreq	r1, [r7], #4
    3c64:	e3510000 	cmp	r1, #0	; 0x0
    3c68:	b2611000 	rsblt	r1, r1, #0	; 0x0
    3c6c:	b3a0202d 	movlt	r2, #45	; 0x2d
    3c70:	b50b205c 	strlt	r2, [fp, -#92]
    3c74:	e3a02001 	mov	r2, #1	; 0x1
    3c78:	ea000050 	b	3dc0 <_out_stream+0x494>
    3c7c:	e3180001 	tst	r8, #1	; 0x1
    3c80:	14973004 	ldrne	r3, [r7], #4
    3c84:	151b1050 	ldrne	r1, [fp, -#80]
    3c88:	15831000 	strne	r1, [r3]
    3c8c:	1affff30 	bne	3954 <_out_stream+0x28>
    3c90:	e3180002 	tst	r8, #2	; 0x2
    3c94:	14973004 	ldrne	r3, [r7], #4
    3c98:	151b2050 	ldrne	r2, [fp, -#80]
    3c9c:	11c320b0 	strneh	r2, [r3]
    3ca0:	04973004 	ldreq	r3, [r7], #4
    3ca4:	051b1050 	ldreq	r1, [fp, -#80]
    3ca8:	05831000 	streq	r1, [r3]
    3cac:	eaffff28 	b	3954 <_out_stream+0x28>
    3cb0:	e3888001 	orr	r8, r8, #1	; 0x1
    3cb4:	e3180001 	tst	r8, #1	; 0x1
    3cb8:	14971004 	ldrne	r1, [r7], #4
    3cbc:	1a000003 	bne	3cd0 <_out_stream+0x3a4>
    3cc0:	e3180002 	tst	r8, #2	; 0x2
    3cc4:	12877004 	addne	r7, r7, #4	; 0x4
    3cc8:	115710b4 	ldrneh	r1, [r7, -#4]
    3ccc:	04971004 	ldreq	r1, [r7], #4
    3cd0:	e3a02000 	mov	r2, #0	; 0x0
    3cd4:	ea000037 	b	3db8 <_out_stream+0x48c>
    3cd8:	e4971004 	ldr	r1, [r7], #4
    3cdc:	e3a02002 	mov	r2, #2	; 0x2
    3ce0:	e3888040 	orr	r8, r8, #64	; 0x40
    3ce4:	e3a05078 	mov	r5, #120	; 0x78
    3ce8:	ea000032 	b	3db8 <_out_stream+0x48c>
    3cec:	e497a004 	ldr	sl, [r7], #4
    3cf0:	e59f3340 	ldr	r3, [pc, #832]	; 4038 <_out_stream+0x70c>
    3cf4:	e35a0000 	cmp	sl, #0	; 0x0
    3cf8:	01a0a003 	moveq	sl, r3
    3cfc:	e51b2058 	ldr	r2, [fp, -#88]
    3d00:	e3520000 	cmp	r2, #0	; 0x0
    3d04:	ba00000c 	blt	3d3c <_out_stream+0x410>
    3d08:	e1a0000a 	mov	r0, sl
    3d0c:	e3a01000 	mov	r1, #0	; 0x0
    3d10:	ebfffed4 	bl	3868 <mem_chr>
    3d14:	e3500000 	cmp	r0, #0	; 0x0
    3d18:	051b1058 	ldreq	r1, [fp, -#88]
    3d1c:	050b1068 	streq	r1, [fp, -#104]
    3d20:	0a000008 	beq	3d48 <_out_stream+0x41c>
    3d24:	e06a0000 	rsb	r0, sl, r0
    3d28:	e50b0068 	str	r0, [fp, -#104]
    3d2c:	e51b3058 	ldr	r3, [fp, -#88]
    3d30:	e1500003 	cmp	r0, r3
    3d34:	c50b3068 	strgt	r3, [fp, -#104]
    3d38:	ea000002 	b	3d48 <_out_stream+0x41c>
    3d3c:	e1a0000a 	mov	r0, sl
    3d40:	ebfff3d9 	bl	cac <str_len>
    3d44:	e50b0068 	str	r0, [fp, -#104]
    3d48:	e3a02000 	mov	r2, #0	; 0x0
    3d4c:	e50b205c 	str	r2, [fp, -#92]
    3d50:	ea000060 	b	3ed8 <_out_stream+0x5ac>
    3d54:	e3888001 	orr	r8, r8, #1	; 0x1
    3d58:	e3180001 	tst	r8, #1	; 0x1
    3d5c:	14971004 	ldrne	r1, [r7], #4
    3d60:	1a000003 	bne	3d74 <_out_stream+0x448>
    3d64:	e3180002 	tst	r8, #2	; 0x2
    3d68:	12877004 	addne	r7, r7, #4	; 0x4
    3d6c:	115710b4 	ldrneh	r1, [r7, -#4]
    3d70:	04971004 	ldreq	r1, [r7], #4
    3d74:	e3a02001 	mov	r2, #1	; 0x1
    3d78:	ea00000e 	b	3db8 <_out_stream+0x48c>
    3d7c:	e3180001 	tst	r8, #1	; 0x1
    3d80:	14971004 	ldrne	r1, [r7], #4
    3d84:	1a000003 	bne	3d98 <_out_stream+0x46c>
    3d88:	e3180002 	tst	r8, #2	; 0x2
    3d8c:	12877004 	addne	r7, r7, #4	; 0x4
    3d90:	115710b4 	ldrneh	r1, [r7, -#4]
    3d94:	04971004 	ldreq	r1, [r7], #4
    3d98:	e3a02002 	mov	r2, #2	; 0x2
    3d9c:	e1a03238 	mov	r3, r8, lsr r2
    3da0:	e2033001 	and	r3, r3, #1	; 0x1
    3da4:	e3510000 	cmp	r1, #0	; 0x0
    3da8:	03a03000 	moveq	r3, #0	; 0x0
    3dac:	12033001 	andne	r3, r3, #1	; 0x1
    3db0:	e3530000 	cmp	r3, #0	; 0x0
    3db4:	13888040 	orrne	r8, r8, #64	; 0x40
    3db8:	e3a03000 	mov	r3, #0	; 0x0
    3dbc:	e50b305c 	str	r3, [fp, -#92]
    3dc0:	e51b3058 	ldr	r3, [fp, -#88]
    3dc4:	e3530000 	cmp	r3, #0	; 0x0
    3dc8:	e50b3060 	str	r3, [fp, -#96]
    3dcc:	a3c88020 	bicge	r8, r8, #32	; 0x20
    3dd0:	e24ba02c 	sub	sl, fp, #44	; 0x2c
    3dd4:	e51b3058 	ldr	r3, [fp, -#88]
    3dd8:	e3530000 	cmp	r3, #0	; 0x0
    3ddc:	03510000 	cmpeq	r1, #0	; 0x0
    3de0:	0a00002f 	beq	3ea4 <_out_stream+0x578>
    3de4:	e3520001 	cmp	r2, #1	; 0x1
    3de8:	0a000012 	beq	3e38 <_out_stream+0x50c>
    3dec:	ca000002 	bgt	3dfc <_out_stream+0x4d0>
    3df0:	e3520000 	cmp	r2, #0	; 0x0
    3df4:	0a000003 	beq	3e08 <_out_stream+0x4dc>
    3df8:	ea000027 	b	3e9c <_out_stream+0x570>
    3dfc:	e3520002 	cmp	r2, #2	; 0x2
    3e00:	0a00001b 	beq	3e74 <_out_stream+0x548>
    3e04:	ea000024 	b	3e9c <_out_stream+0x570>
    3e08:	e2013007 	and	r3, r1, #7	; 0x7
    3e0c:	e2833030 	add	r3, r3, #48	; 0x30
    3e10:	e56a3001 	strb	r3, [sl, -#1]!
    3e14:	e1b011a1 	movs	r1, r1, lsr #3
    3e18:	1afffffa 	bne	3e08 <_out_stream+0x4dc>
    3e1c:	e3180004 	tst	r8, #4	; 0x4
    3e20:	0a00001f 	beq	3ea4 <_out_stream+0x578>
    3e24:	e5da3000 	ldrb	r3, [sl]
    3e28:	e3530030 	cmp	r3, #48	; 0x30
    3e2c:	13a03030 	movne	r3, #48	; 0x30
    3e30:	156a3001 	strneb	r3, [sl, -#1]!
    3e34:	ea00001a 	b	3ea4 <_out_stream+0x578>
    3e38:	e3510009 	cmp	r1, #9	; 0x9
    3e3c:	9a000009 	bls	3e68 <_out_stream+0x53c>
    3e40:	e59f01f4 	ldr	r0, [pc, #500]	; 403c <_out_stream+0x710>
    3e44:	e0823190 	umull	r3, r2, r0, r1
    3e48:	e1a021a2 	mov	r2, r2, lsr #3
    3e4c:	e0823102 	add	r3, r2, r2, lsl #2
    3e50:	e0413083 	sub	r3, r1, r3, lsl #1
    3e54:	e2833030 	add	r3, r3, #48	; 0x30
    3e58:	e56a3001 	strb	r3, [sl, -#1]!
    3e5c:	e1a01002 	mov	r1, r2
    3e60:	e3510009 	cmp	r1, #9	; 0x9
    3e64:	8afffff6 	bhi	3e44 <_out_stream+0x518>
    3e68:	e2813030 	add	r3, r1, #48	; 0x30
    3e6c:	e56a3001 	strb	r3, [sl, -#1]!
    3e70:	ea00000b 	b	3ea4 <_out_stream+0x578>
    3e74:	e59f21c4 	ldr	r2, [pc, #452]	; 4040 <_out_stream+0x714>
    3e78:	e59f31c4 	ldr	r3, [pc, #452]	; 4044 <_out_stream+0x718>
    3e7c:	e3550058 	cmp	r5, #88	; 0x58
    3e80:	01a02003 	moveq	r2, r3
    3e84:	e201300f 	and	r3, r1, #15	; 0xf
    3e88:	e7d23003 	ldrb	r3, [r2, r3]
    3e8c:	e56a3001 	strb	r3, [sl, -#1]!
    3e90:	e1b01221 	movs	r1, r1, lsr #4
    3e94:	1afffffa 	bne	3e84 <_out_stream+0x558>
    3e98:	ea000001 	b	3ea4 <_out_stream+0x578>
    3e9c:	e59fa1a4 	ldr	sl, [pc, #420]	; 4048 <_out_stream+0x71c>
    3ea0:	ea00000c 	b	3ed8 <_out_stream+0x5ac>
    3ea4:	e24b1028 	sub	r1, fp, #40	; 0x28
    3ea8:	e06a1001 	rsb	r1, sl, r1
    3eac:	e2411004 	sub	r1, r1, #4	; 0x4
    3eb0:	e50b1068 	str	r1, [fp, -#104]
    3eb4:	ea000007 	b	3ed8 <_out_stream+0x5ac>
    3eb8:	e3550000 	cmp	r5, #0	; 0x0
    3ebc:	0a00005b 	beq	4030 <_out_stream+0x704>
    3ec0:	e24ba04c 	sub	sl, fp, #76	; 0x4c
    3ec4:	e54b504c 	strb	r5, [fp, -#76]
    3ec8:	e3a02001 	mov	r2, #1	; 0x1
    3ecc:	e50b2068 	str	r2, [fp, -#104]
    3ed0:	e3a03000 	mov	r3, #0	; 0x0
    3ed4:	e50b305c 	str	r3, [fp, -#92]
    3ed8:	e51b4068 	ldr	r4, [fp, -#104]
    3edc:	e51b1060 	ldr	r1, [fp, -#96]
    3ee0:	e0511004 	subs	r1, r1, r4
    3ee4:	43a01000 	movmi	r1, #0	; 0x0
    3ee8:	e50b1064 	str	r1, [fp, -#100]
    3eec:	e51b205c 	ldr	r2, [fp, -#92]
    3ef0:	e3520000 	cmp	r2, #0	; 0x0
    3ef4:	12844001 	addne	r4, r4, #1	; 0x1
    3ef8:	1a000001 	bne	3f04 <_out_stream+0x5d8>
    3efc:	e3180040 	tst	r8, #64	; 0x40
    3f00:	12844002 	addne	r4, r4, #2	; 0x2
    3f04:	e51b3064 	ldr	r3, [fp, -#100]
    3f08:	e0844003 	add	r4, r4, r3
    3f0c:	e3180030 	tst	r8, #48	; 0x30
    3f10:	13a03000 	movne	r3, #0	; 0x0
    3f14:	03a03001 	moveq	r3, #1	; 0x1
    3f18:	e51b1054 	ldr	r1, [fp, -#84]
    3f1c:	e1510004 	cmp	r1, r4
    3f20:	d3a03000 	movle	r3, #0	; 0x0
    3f24:	c2033001 	andgt	r3, r3, #1	; 0x1
    3f28:	e3530000 	cmp	r3, #0	; 0x0
    3f2c:	0a000004 	beq	3f44 <_out_stream+0x618>
    3f30:	e0642001 	rsb	r2, r4, r1
    3f34:	e1a00009 	mov	r0, r9
    3f38:	e3a01020 	mov	r1, #32	; 0x20
    3f3c:	ebfffe72 	bl	390c <mem_chr+0xa4>
    3f40:	e0899000 	add	r9, r9, r0
    3f44:	e51b205c 	ldr	r2, [fp, -#92]
    3f48:	e3520000 	cmp	r2, #0	; 0x0
    3f4c:	11a00009 	movne	r0, r9
    3f50:	11a01002 	movne	r1, r2
    3f54:	1a000007 	bne	3f78 <_out_stream+0x64c>
    3f58:	e3180040 	tst	r8, #64	; 0x40
    3f5c:	0a000007 	beq	3f80 <_out_stream+0x654>
    3f60:	e1a00009 	mov	r0, r9
    3f64:	e3a01030 	mov	r1, #48	; 0x30
    3f68:	ebfffe47 	bl	388c <mem_chr+0x24>
    3f6c:	e0899000 	add	r9, r9, r0
    3f70:	e20510ff 	and	r1, r5, #255	; 0xff
    3f74:	e1a00009 	mov	r0, r9
    3f78:	ebfffe43 	bl	388c <mem_chr+0x24>
    3f7c:	e0899000 	add	r9, r9, r0
    3f80:	e2082030 	and	r2, r8, #48	; 0x30
    3f84:	e51b1054 	ldr	r1, [fp, -#84]
    3f88:	e1510004 	cmp	r1, r4
    3f8c:	d3a03000 	movle	r3, #0	; 0x0
    3f90:	c3a03001 	movgt	r3, #1	; 0x1
    3f94:	e3520020 	cmp	r2, #32	; 0x20
    3f98:	13a03000 	movne	r3, #0	; 0x0
    3f9c:	02033001 	andeq	r3, r3, #1	; 0x1
    3fa0:	e3530000 	cmp	r3, #0	; 0x0
    3fa4:	0a000004 	beq	3fbc <_out_stream+0x690>
    3fa8:	e0642001 	rsb	r2, r4, r1
    3fac:	e1a00009 	mov	r0, r9
    3fb0:	e3a01030 	mov	r1, #48	; 0x30
    3fb4:	ebfffe54 	bl	390c <mem_chr+0xa4>
    3fb8:	e0899000 	add	r9, r9, r0
    3fbc:	e1a00009 	mov	r0, r9
    3fc0:	e3a01030 	mov	r1, #48	; 0x30
    3fc4:	e51b2064 	ldr	r2, [fp, -#100]
    3fc8:	ebfffe4f 	bl	390c <mem_chr+0xa4>
    3fcc:	e1a00009 	mov	r0, r9
    3fd0:	e1a0100a 	mov	r1, sl
    3fd4:	e51b2068 	ldr	r2, [fp, -#104]
    3fd8:	ebfffe3c 	bl	38d0 <mem_chr+0x68>
    3fdc:	e0899000 	add	r9, r9, r0
    3fe0:	e1a03228 	mov	r3, r8, lsr #4
    3fe4:	e2033001 	and	r3, r3, #1	; 0x1
    3fe8:	e51b2054 	ldr	r2, [fp, -#84]
    3fec:	e1520004 	cmp	r2, r4
    3ff0:	d3a03000 	movle	r3, #0	; 0x0
    3ff4:	c2033001 	andgt	r3, r3, #1	; 0x1
    3ff8:	e3530000 	cmp	r3, #0	; 0x0
    3ffc:	0a000004 	beq	4014 <_out_stream+0x6e8>
    4000:	e0642002 	rsb	r2, r4, r2
    4004:	e1a00009 	mov	r0, r9
    4008:	e3a01020 	mov	r1, #32	; 0x20
    400c:	ebfffe3e 	bl	390c <mem_chr+0xa4>
    4010:	e0899000 	add	r9, r9, r0
    4014:	e24b1054 	sub	r1, fp, #84	; 0x54
    4018:	e891000a 	ldmia	r1, {r1, r3}
    401c:	e1540001 	cmp	r4, r1
    4020:	a0833004 	addge	r3, r3, r4
    4024:	b0833001 	addlt	r3, r3, r1
    4028:	e50b3050 	str	r3, [fp, -#80]
    402c:	eafffe48 	b	3954 <_out_stream+0x28>
    4030:	e51b0050 	ldr	r0, [fp, -#80]
    4034:	e91baff0 	ldmdb	fp, {r4, r5, r6, r7, r8, r9, sl, fp, sp, pc}
    4038:	00005280 	andeq	r5, r0, r0, lsl #5
    403c:	cccccccd 	stcgtl	12, cr12, [ip], #820
    4040:	00005284 	andeq	r5, r0, r4, lsl #5
    4044:	00005298 	muleq	r0, r8, r2
    4048:	000052ac 	andeq	r5, r0, ip, lsr #5

0000404c <std_sprintf>:
    404c:	e1a0c00d 	mov	ip, sp
    4050:	e92d000e 	stmdb	sp!, {r1, r2, r3}
    4054:	e92dd810 	stmdb	sp!, {r4, fp, ip, lr, pc}
    4058:	e24cb010 	sub	fp, ip, #16	; 0x10
    405c:	e1a04000 	mov	r4, r0
    4060:	e1a0200b 	mov	r2, fp
    4064:	e59b3004 	ldr	r3, [fp, #4]
    4068:	e5a23004 	str	r3, [r2, #4]!
    406c:	e2822004 	add	r2, r2, #4	; 0x4
    4070:	e59b1004 	ldr	r1, [fp, #4]
    4074:	ebfffe2c 	bl	392c <_out_stream>
    4078:	e1a02000 	mov	r2, r0
    407c:	e3a03000 	mov	r3, #0	; 0x0
    4080:	e7c43002 	strb	r3, [r4, r2]
    4084:	e91ba810 	ldmdb	fp, {r4, fp, sp, pc}

00004088 <std_vsprintf>:
    4088:	e1a0c00d 	mov	ip, sp
    408c:	e92dd810 	stmdb	sp!, {r4, fp, ip, lr, pc}
    4090:	e24cb004 	sub	fp, ip, #4	; 0x4
    4094:	e1a04000 	mov	r4, r0
    4098:	ebfffe23 	bl	392c <_out_stream>
    409c:	e1a02000 	mov	r2, r0
    40a0:	e3a03000 	mov	r3, #0	; 0x0
    40a4:	e7c43002 	strb	r3, [r4, r2]
    40a8:	e91ba810 	ldmdb	fp, {r4, fp, sp, pc}

000040ac <std_srand>:
    40ac:	e59f3004 	ldr	r3, [pc, #4]	; 40b8 <std_srand+0xc>
    40b0:	e5830000 	str	r0, [r3]
    40b4:	e1a0f00e 	mov	pc, lr
    40b8:	3200002c 	andcc	r0, r0, #44	; 0x2c

000040bc <std_rand>:
    40bc:	e59f2034 	ldr	r2, [pc, #52]	; 40f8 <std_rand+0x3c>
    40c0:	e5923000 	ldr	r3, [r2]
    40c4:	e0830183 	add	r0, r3, r3, lsl #3
    40c8:	e0830180 	add	r0, r3, r0, lsl #3
    40cc:	e0800180 	add	r0, r0, r0, lsl #3
    40d0:	e0600380 	rsb	r0, r0, r0, lsl #7
    40d4:	e0830100 	add	r0, r3, r0, lsl #2
    40d8:	e0800200 	add	r0, r0, r0, lsl #4
    40dc:	e0830100 	add	r0, r3, r0, lsl #2
    40e0:	e2800001 	add	r0, r0, #1	; 0x1
    40e4:	e5820000 	str	r0, [r2]
    40e8:	e1a00820 	mov	r0, r0, lsr #16
    40ec:	e1a00880 	mov	r0, r0, lsl #17
    40f0:	e1a008a0 	mov	r0, r0, lsr #17
    40f4:	e1a0f00e 	mov	pc, lr
    40f8:	3200002c 	andcc	r0, r0, #44	; 0x2c

000040fc <std_random>:
    40fc:	e59f1054 	ldr	r1, [pc, #84]	; 4158 <std_random+0x5c>
    4100:	e5913000 	ldr	r3, [r1]
    4104:	e0832183 	add	r2, r3, r3, lsl #3
    4108:	e0832182 	add	r2, r3, r2, lsl #3
    410c:	e0822182 	add	r2, r2, r2, lsl #3
    4110:	e0622382 	rsb	r2, r2, r2, lsl #7
    4114:	e0832102 	add	r2, r3, r2, lsl #2
    4118:	e0822202 	add	r2, r2, r2, lsl #4
    411c:	e0832102 	add	r2, r3, r2, lsl #2
    4120:	e2822001 	add	r2, r2, #1	; 0x1
    4124:	e1a00822 	mov	r0, r2, lsr #16
    4128:	e1a00800 	mov	r0, r0, lsl #16
    412c:	e0823182 	add	r3, r2, r2, lsl #3
    4130:	e0823183 	add	r3, r2, r3, lsl #3
    4134:	e0833183 	add	r3, r3, r3, lsl #3
    4138:	e0633383 	rsb	r3, r3, r3, lsl #7
    413c:	e0823103 	add	r3, r2, r3, lsl #2
    4140:	e0833203 	add	r3, r3, r3, lsl #4
    4144:	e0823103 	add	r3, r2, r3, lsl #2
    4148:	e2833001 	add	r3, r3, #1	; 0x1
    414c:	e5813000 	str	r3, [r1]
    4150:	e1800823 	orr	r0, r0, r3, lsr #16
    4154:	e1a0f00e 	mov	pc, lr
    4158:	3200002c 	andcc	r0, r0, #44	; 0x2c
    415c:	e1a0c00d 	mov	ip, sp
    4160:	e92dd9f0 	stmdb	sp!, {r4, r5, r6, r7, r8, fp, ip, lr, pc}
    4164:	e24cb004 	sub	fp, ip, #4	; 0x4
    4168:	e1a06000 	mov	r6, r0
    416c:	e1a08002 	mov	r8, r2
    4170:	e1a05001 	mov	r5, r1
    4174:	e3530000 	cmp	r3, #0	; 0x0
    4178:	13a0302d 	movne	r3, #45	; 0x2d
    417c:	14c53001 	strneb	r3, [r5], #1
    4180:	12666000 	rsbne	r6, r6, #0	; 0x0
    4184:	e1a07005 	mov	r7, r5
    4188:	e1a00006 	mov	r0, r6
    418c:	e1a01008 	mov	r1, r8
    4190:	eb0001da 	bl	4900 <__umodsi3>
    4194:	e1a04000 	mov	r4, r0
    4198:	e1a00006 	mov	r0, r6
    419c:	e1a01008 	mov	r1, r8
    41a0:	eb000184 	bl	47b8 <__udivsi3>
    41a4:	e1a06000 	mov	r6, r0
    41a8:	e3540009 	cmp	r4, #9	; 0x9
    41ac:	82843057 	addhi	r3, r4, #87	; 0x57
    41b0:	84c53001 	strhib	r3, [r5], #1
    41b4:	92843030 	addls	r3, r4, #48	; 0x30
    41b8:	94c53001 	strlsb	r3, [r5], #1
    41bc:	e3560000 	cmp	r6, #0	; 0x0
    41c0:	1afffff0 	bne	4188 <std_random+0x8c>
    41c4:	e3a03000 	mov	r3, #0	; 0x0
    41c8:	e4453001 	strb	r3, [r5], -#1
    41cc:	e5d52000 	ldrb	r2, [r5]
    41d0:	e5d73000 	ldrb	r3, [r7]
    41d4:	e4453001 	strb	r3, [r5], -#1
    41d8:	e4c72001 	strb	r2, [r7], #1
    41dc:	e1570005 	cmp	r7, r5
    41e0:	3afffff9 	bcc	41cc <std_random+0xd0>
    41e4:	e91ba9f0 	ldmdb	fp, {r4, r5, r6, r7, r8, fp, sp, pc}

000041e8 <std_itoa>:
    41e8:	e1a0c00d 	mov	ip, sp
    41ec:	e92dd810 	stmdb	sp!, {r4, fp, ip, lr, pc}
    41f0:	e24cb004 	sub	fp, ip, #4	; 0x4
    41f4:	e1a0c000 	mov	ip, r0
    41f8:	e1a04001 	mov	r4, r1
    41fc:	e1a0e002 	mov	lr, r2
    4200:	e1a03fac 	mov	r3, ip, lsr #31
    4204:	e35e000a 	cmp	lr, #10	; 0xa
    4208:	13a03000 	movne	r3, #0	; 0x0
    420c:	02033001 	andeq	r3, r3, #1	; 0x1
    4210:	e3530000 	cmp	r3, #0	; 0x0
    4214:	0a000002 	beq	4224 <std_itoa+0x3c>
    4218:	e3a03001 	mov	r3, #1	; 0x1
    421c:	ebffffce 	bl	415c <std_random+0x60>
    4220:	ea000004 	b	4238 <std_itoa+0x50>
    4224:	e1a0000c 	mov	r0, ip
    4228:	e1a01004 	mov	r1, r4
    422c:	e1a0200e 	mov	r2, lr
    4230:	e3a03000 	mov	r3, #0	; 0x0
    4234:	ebffffc8 	bl	415c <std_random+0x60>
    4238:	e1a00004 	mov	r0, r4
    423c:	e91ba810 	ldmdb	fp, {r4, fp, sp, pc}

00004240 <std_ltoa>:
    4240:	e1a0c00d 	mov	ip, sp
    4244:	e92dd810 	stmdb	sp!, {r4, fp, ip, lr, pc}
    4248:	e24cb004 	sub	fp, ip, #4	; 0x4
    424c:	e1a03000 	mov	r3, r0
    4250:	e1a04001 	mov	r4, r1
    4254:	e1a0c002 	mov	ip, r2
    4258:	e1a03fa3 	mov	r3, r3, lsr #31
    425c:	e35c000a 	cmp	ip, #10	; 0xa
    4260:	13a03000 	movne	r3, #0	; 0x0
    4264:	02033001 	andeq	r3, r3, #1	; 0x1
    4268:	ebffffbb 	bl	415c <std_random+0x60>
    426c:	e1a00004 	mov	r0, r4
    4270:	e91ba810 	ldmdb	fp, {r4, fp, sp, pc}

00004274 <std_ultoa>:
    4274:	e1a0c00d 	mov	ip, sp
    4278:	e92dd810 	stmdb	sp!, {r4, fp, ip, lr, pc}
    427c:	e24cb004 	sub	fp, ip, #4	; 0x4
    4280:	e1a04001 	mov	r4, r1
    4284:	e3a03000 	mov	r3, #0	; 0x0
    4288:	ebffffb3 	bl	415c <std_random+0x60>
    428c:	e1a00004 	mov	r0, r4
    4290:	e91ba810 	ldmdb	fp, {r4, fp, sp, pc}

00004294 <std_atol>:
    4294:	e1a0c00d 	mov	ip, sp
    4298:	e92dd810 	stmdb	sp!, {r4, fp, ip, lr, pc}
    429c:	e24cb004 	sub	fp, ip, #4	; 0x4
    42a0:	e1a04000 	mov	r4, r0
    42a4:	e5d40000 	ldrb	r0, [r4]
    42a8:	eb000104 	bl	46c0 <std_isspace>
    42ac:	e3500000 	cmp	r0, #0	; 0x0
    42b0:	12844001 	addne	r4, r4, #1	; 0x1
    42b4:	1afffffa 	bne	42a4 <std_atol+0x10>
    42b8:	e4d40001 	ldrb	r0, [r4], #1
    42bc:	e1a01000 	mov	r1, r0
    42c0:	e351002b 	cmp	r1, #43	; 0x2b
    42c4:	1351002d 	cmpne	r1, #45	; 0x2d
    42c8:	04d40001 	ldreqb	r0, [r4], #1
    42cc:	e3a02000 	mov	r2, #0	; 0x0
    42d0:	ea000003 	b	42e4 <std_atol+0x50>
    42d4:	e0823102 	add	r3, r2, r2, lsl #2
    42d8:	e0803083 	add	r3, r0, r3, lsl #1
    42dc:	e2432030 	sub	r2, r3, #48	; 0x30
    42e0:	e4d40001 	ldrb	r0, [r4], #1
    42e4:	e2403030 	sub	r3, r0, #48	; 0x30
    42e8:	e3530009 	cmp	r3, #9	; 0x9
    42ec:	9afffff8 	bls	42d4 <std_atol+0x40>
    42f0:	e351002d 	cmp	r1, #45	; 0x2d
    42f4:	02620000 	rsbeq	r0, r2, #0	; 0x0
    42f8:	11a00002 	movne	r0, r2
    42fc:	e91ba810 	ldmdb	fp, {r4, fp, sp, pc}

00004300 <std_atoi>:
    4300:	e1a0c00d 	mov	ip, sp
    4304:	e92dd800 	stmdb	sp!, {fp, ip, lr, pc}
    4308:	e24cb004 	sub	fp, ip, #4	; 0x4
    430c:	ebffffe0 	bl	4294 <std_atol>
    4310:	e91ba800 	ldmdb	fp, {fp, sp, pc}
    4314:	e1a0c00d 	mov	ip, sp
    4318:	e92ddff0 	stmdb	sp!, {r4, r5, r6, r7, r8, r9, sl, fp, ip, lr, pc}
    431c:	e24cb004 	sub	fp, ip, #4	; 0x4
    4320:	e24dd004 	sub	sp, sp, #4	; 0x4
    4324:	e1a09000 	mov	r9, r0
    4328:	e1a0a001 	mov	sl, r1
    432c:	e1a07002 	mov	r7, r2
    4330:	e1a06003 	mov	r6, r3
    4334:	e3570001 	cmp	r7, #1	; 0x1
    4338:	13a03000 	movne	r3, #0	; 0x0
    433c:	03a03001 	moveq	r3, #1	; 0x1
    4340:	e1933fa7 	orrs	r3, r3, r7, lsr #31
    4344:	1a000003 	bne	4358 <std_atoi+0x58>
    4348:	e3570024 	cmp	r7, #36	; 0x24
    434c:	d3a08000 	movle	r8, #0	; 0x0
    4350:	d1a05009 	movle	r5, r9
    4354:	da000003 	ble	4368 <std_atoi+0x68>
    4358:	e35a0000 	cmp	sl, #0	; 0x0
    435c:	158a9000 	strne	r9, [sl]
    4360:	e3a00000 	mov	r0, #0	; 0x0
    4364:	e91baff0 	ldmdb	fp, {r4, r5, r6, r7, r8, r9, sl, fp, sp, pc}
    4368:	e5d50000 	ldrb	r0, [r5]
    436c:	eb0000d3 	bl	46c0 <std_isspace>
    4370:	e3500000 	cmp	r0, #0	; 0x0
    4374:	12855001 	addne	r5, r5, #1	; 0x1
    4378:	1afffffa 	bne	4368 <std_atoi+0x68>
    437c:	e4d54001 	ldrb	r4, [r5], #1
    4380:	e354002d 	cmp	r4, #45	; 0x2d
    4384:	03866008 	orreq	r6, r6, #8	; 0x8
    4388:	04d54001 	ldreqb	r4, [r5], #1
    438c:	0a000001 	beq	4398 <std_atoi+0x98>
    4390:	e354002b 	cmp	r4, #43	; 0x2b
    4394:	04d54001 	ldreqb	r4, [r5], #1
    4398:	e3570000 	cmp	r7, #0	; 0x0
    439c:	1a000007 	bne	43c0 <std_atoi+0xc0>
    43a0:	e3540030 	cmp	r4, #48	; 0x30
    43a4:	13a0700a 	movne	r7, #10	; 0xa
    43a8:	1a000004 	bne	43c0 <std_atoi+0xc0>
    43ac:	e5d53000 	ldrb	r3, [r5]
    43b0:	e3530058 	cmp	r3, #88	; 0x58
    43b4:	13530078 	cmpne	r3, #120	; 0x78
    43b8:	13a07008 	movne	r7, #8	; 0x8
    43bc:	03a07010 	moveq	r7, #16	; 0x10
    43c0:	e3570010 	cmp	r7, #16	; 0x10
    43c4:	1a000006 	bne	43e4 <std_atoi+0xe4>
    43c8:	e3540030 	cmp	r4, #48	; 0x30
    43cc:	1a000004 	bne	43e4 <std_atoi+0xe4>
    43d0:	e5d53000 	ldrb	r3, [r5]
    43d4:	e3530058 	cmp	r3, #88	; 0x58
    43d8:	13530078 	cmpne	r3, #120	; 0x78
    43dc:	02855001 	addeq	r5, r5, #1	; 0x1
    43e0:	04d54001 	ldreqb	r4, [r5], #1
    43e4:	e3e00000 	mvn	r0, #0	; 0x0
    43e8:	e1a01007 	mov	r1, r7
    43ec:	eb0000f1 	bl	47b8 <__udivsi3>
    43f0:	e50b002c 	str	r0, [fp, -#44]
    43f4:	ea00000d 	b	4430 <std_atoi+0x130>
    43f8:	e3866004 	orr	r6, r6, #4	; 0x4
    43fc:	e51b302c 	ldr	r3, [fp, -#44]
    4400:	e1580003 	cmp	r8, r3
    4404:	3a000005 	bcc	4420 <std_atoi+0x120>
    4408:	1a000006 	bne	4428 <std_atoi+0x128>
    440c:	e3e00000 	mvn	r0, #0	; 0x0
    4410:	e1a01007 	mov	r1, r7
    4414:	eb000139 	bl	4900 <__umodsi3>
    4418:	e1540000 	cmp	r4, r0
    441c:	8a000001 	bhi	4428 <std_atoi+0x128>
    4420:	e0284897 	mla	r8, r7, r8, r4
    4424:	ea000000 	b	442c <std_atoi+0x12c>
    4428:	e3866002 	orr	r6, r6, #2	; 0x2
    442c:	e4d54001 	ldrb	r4, [r5], #1
    4430:	e28430d0 	add	r3, r4, #208	; 0xd0
    4434:	e20330ff 	and	r3, r3, #255	; 0xff
    4438:	e3530009 	cmp	r3, #9	; 0x9
    443c:	92444030 	subls	r4, r4, #48	; 0x30
    4440:	9a000009 	bls	446c <std_atoi+0x16c>
    4444:	e284309f 	add	r3, r4, #159	; 0x9f
    4448:	e20330ff 	and	r3, r3, #255	; 0xff
    444c:	e3530019 	cmp	r3, #25	; 0x19
    4450:	92444057 	subls	r4, r4, #87	; 0x57
    4454:	9a000004 	bls	446c <std_atoi+0x16c>
    4458:	e28430bf 	add	r3, r4, #191	; 0xbf
    445c:	e20330ff 	and	r3, r3, #255	; 0xff
    4460:	e3530019 	cmp	r3, #25	; 0x19
    4464:	8a000002 	bhi	4474 <std_atoi+0x174>
    4468:	e2444037 	sub	r4, r4, #55	; 0x37
    446c:	e1540007 	cmp	r4, r7
    4470:	3affffe0 	bcc	43f8 <std_atoi+0xf8>
    4474:	e2455001 	sub	r5, r5, #1	; 0x1
    4478:	e2163004 	ands	r3, r6, #4	; 0x4
    447c:	1a000003 	bne	4490 <std_atoi+0x190>
    4480:	e35a0000 	cmp	sl, #0	; 0x0
    4484:	11a05009 	movne	r5, r9
    4488:	e1a08003 	mov	r8, r3
    448c:	ea000017 	b	44f0 <std_atoi+0x1f0>
    4490:	e3160002 	tst	r6, #2	; 0x2
    4494:	1a00000c 	bne	44cc <std_atoi+0x1cc>
    4498:	e3160001 	tst	r6, #1	; 0x1
    449c:	1a000013 	bne	44f0 <std_atoi+0x1f0>
    44a0:	e1a021a6 	mov	r2, r6, lsr #3
    44a4:	e2023001 	and	r3, r2, #1	; 0x1
    44a8:	e3580102 	cmp	r8, #-2147483648	; 0x80000000
    44ac:	93a03000 	movls	r3, #0	; 0x0
    44b0:	82033001 	andhi	r3, r3, #1	; 0x1
    44b4:	e3530000 	cmp	r3, #0	; 0x0
    44b8:	1a000003 	bne	44cc <std_atoi+0x1cc>
    44bc:	e2223001 	eor	r3, r2, #1	; 0x1
    44c0:	e2033001 	and	r3, r3, #1	; 0x1
    44c4:	e0133fa8 	ands	r3, r3, r8, lsr #31
    44c8:	0a000008 	beq	44f0 <std_atoi+0x1f0>
    44cc:	e3a02022 	mov	r2, #34	; 0x22
    44d0:	e59f3030 	ldr	r3, [pc, #48]	; 4508 <std_atoi+0x208>
    44d4:	e5832000 	str	r2, [r3]
    44d8:	e3160001 	tst	r6, #1	; 0x1
    44dc:	13e08000 	mvnne	r8, #0	; 0x0
    44e0:	1a000002 	bne	44f0 <std_atoi+0x1f0>
    44e4:	e3160008 	tst	r6, #8	; 0x8
    44e8:	03e08102 	mvneq	r8, #-2147483648	; 0x80000000
    44ec:	13a08102 	movne	r8, #-2147483648	; 0x80000000
    44f0:	e35a0000 	cmp	sl, #0	; 0x0
    44f4:	158a5000 	strne	r5, [sl]
    44f8:	e3160008 	tst	r6, #8	; 0x8
    44fc:	12688000 	rsbne	r8, r8, #0	; 0x0
    4500:	e1a00008 	mov	r0, r8
    4504:	e91baff0 	ldmdb	fp, {r4, r5, r6, r7, r8, r9, sl, fp, sp, pc}
    4508:	32000030 	andcc	r0, r0, #48	; 0x30

0000450c <std_strtoul>:
    450c:	e1a0c00d 	mov	ip, sp
    4510:	e92dd800 	stmdb	sp!, {fp, ip, lr, pc}
    4514:	e24cb004 	sub	fp, ip, #4	; 0x4
    4518:	e3a03001 	mov	r3, #1	; 0x1
    451c:	ebffff7c 	bl	4314 <std_atoi+0x14>
    4520:	e91ba800 	ldmdb	fp, {fp, sp, pc}

00004524 <std_strtol>:
    4524:	e1a0c00d 	mov	ip, sp
    4528:	e92dd800 	stmdb	sp!, {fp, ip, lr, pc}
    452c:	e24cb004 	sub	fp, ip, #4	; 0x4
    4530:	e3a03000 	mov	r3, #0	; 0x0
    4534:	ebffff76 	bl	4314 <std_atoi+0x14>
    4538:	e91ba800 	ldmdb	fp, {fp, sp, pc}

0000453c <std_getenv>:
    453c:	e3a00000 	mov	r0, #0	; 0x0
    4540:	e1a0f00e 	mov	pc, lr
    4544:	e1a0c00d 	mov	ip, sp
    4548:	e92dddf0 	stmdb	sp!, {r4, r5, r6, r7, r8, sl, fp, ip, lr, pc}
    454c:	e24cb004 	sub	fp, ip, #4	; 0x4
    4550:	e1a07000 	mov	r7, r0
    4554:	e5d70000 	ldrb	r0, [r7]
    4558:	eb000058 	bl	46c0 <std_isspace>
    455c:	e3500000 	cmp	r0, #0	; 0x0
    4560:	12877001 	addne	r7, r7, #1	; 0x1
    4564:	1afffffa 	bne	4554 <std_getenv+0x18>
    4568:	e4d78001 	ldrb	r8, [r7], #1
    456c:	e1a0a008 	mov	sl, r8
    4570:	e35a002b 	cmp	sl, #43	; 0x2b
    4574:	135a002d 	cmpne	sl, #45	; 0x2d
    4578:	04d78001 	ldreqb	r8, [r7], #1
    457c:	e3a06000 	mov	r6, #0	; 0x0
    4580:	e3a05000 	mov	r5, #0	; 0x0
    4584:	ea00000d 	b	45c0 <std_getenv+0x84>
    4588:	e1a02106 	mov	r2, r6, lsl #2
    458c:	e1824f25 	orr	r4, r2, r5, lsr #30
    4590:	e1a03105 	mov	r3, r5, lsl #2
    4594:	e1a02004 	mov	r2, r4
    4598:	e1a01003 	mov	r1, r3
    459c:	e0911005 	adds	r1, r1, r5
    45a0:	e0a22006 	adc	r2, r2, r6
    45a4:	e1a00082 	mov	r0, r2, lsl #1
    45a8:	e1804fa1 	orr	r4, r0, r1, lsr #31
    45ac:	e1a03081 	mov	r3, r1, lsl #1
    45b0:	e2482030 	sub	r2, r8, #48	; 0x30
    45b4:	e0935002 	adds	r5, r3, r2
    45b8:	e0a46fc2 	adc	r6, r4, r2, asr #31
    45bc:	e4d78001 	ldrb	r8, [r7], #1
    45c0:	e1a00008 	mov	r0, r8
    45c4:	eb00002f 	bl	4688 <std_isdigit>
    45c8:	e3500000 	cmp	r0, #0	; 0x0
    45cc:	1affffed 	bne	4588 <std_getenv+0x4c>
    45d0:	e35a002d 	cmp	sl, #45	; 0x2d
    45d4:	1a000002 	bne	45e4 <std_getenv+0xa8>
    45d8:	e2750000 	rsbs	r0, r5, #0	; 0x0
    45dc:	e2e61000 	rsc	r1, r6, #0	; 0x0
    45e0:	e91badf0 	ldmdb	fp, {r4, r5, r6, r7, r8, sl, fp, sp, pc}
    45e4:	e1a01006 	mov	r1, r6
    45e8:	e1a00005 	mov	r0, r5
    45ec:	e91badf0 	ldmdb	fp, {r4, r5, r6, r7, r8, sl, fp, sp, pc}

000045f0 <std_atoi64>:
    45f0:	e1a0c00d 	mov	ip, sp
    45f4:	e92dd800 	stmdb	sp!, {fp, ip, lr, pc}
    45f8:	e24cb004 	sub	fp, ip, #4	; 0x4
    45fc:	ebffffd0 	bl	4544 <std_getenv+0x8>
    4600:	e91ba800 	ldmdb	fp, {fp, sp, pc}

00004604 <std_atoll>:
    4604:	e1a0c00d 	mov	ip, sp
    4608:	e92dd800 	stmdb	sp!, {fp, ip, lr, pc}
    460c:	e24cb004 	sub	fp, ip, #4	; 0x4
    4610:	ebffffcb 	bl	4544 <std_getenv+0x8>
    4614:	e91ba800 	ldmdb	fp, {fp, sp, pc}

00004618 <_isctype>:
    4618:	e35000ff 	cmp	r0, #255	; 0xff
    461c:	d59f300c 	ldrle	r3, [pc, #12]	; 4630 <_isctype+0x18>
    4620:	d7d30000 	ldrleb	r0, [r3, r0]
    4624:	d0000001 	andle	r0, r0, r1
    4628:	c3a00000 	movgt	r0, #0	; 0x0
    462c:	e1a0f00e 	mov	pc, lr
    4630:	000052b0 	streqh	r5, [r0], -r0

00004634 <std_isalpha>:
    4634:	e35000ff 	cmp	r0, #255	; 0xff
    4638:	d59f300c 	ldrle	r3, [pc, #12]	; 464c <std_isalpha+0x18>
    463c:	d7d30000 	ldrleb	r0, [r3, r0]
    4640:	d200000c 	andle	r0, r0, #12	; 0xc
    4644:	c3a00000 	movgt	r0, #0	; 0x0
    4648:	e1a0f00e 	mov	pc, lr
    464c:	000052b0 	streqh	r5, [r0], -r0

00004650 <std_isupper>:
    4650:	e35000ff 	cmp	r0, #255	; 0xff
    4654:	d59f300c 	ldrle	r3, [pc, #12]	; 4668 <std_isupper+0x18>
    4658:	d7d30000 	ldrleb	r0, [r3, r0]
    465c:	d2000004 	andle	r0, r0, #4	; 0x4
    4660:	c3a00000 	movgt	r0, #0	; 0x0
    4664:	e1a0f00e 	mov	pc, lr
    4668:	000052b0 	streqh	r5, [r0], -r0

0000466c <std_islower>:
    466c:	e35000ff 	cmp	r0, #255	; 0xff
    4670:	d59f300c 	ldrle	r3, [pc, #12]	; 4684 <std_islower+0x18>
    4674:	d7d30000 	ldrleb	r0, [r3, r0]
    4678:	d2000008 	andle	r0, r0, #8	; 0x8
    467c:	c3a00000 	movgt	r0, #0	; 0x0
    4680:	e1a0f00e 	mov	pc, lr
    4684:	000052b0 	streqh	r5, [r0], -r0

00004688 <std_isdigit>:
    4688:	e35000ff 	cmp	r0, #255	; 0xff
    468c:	d59f300c 	ldrle	r3, [pc, #12]	; 46a0 <std_isdigit+0x18>
    4690:	d7d30000 	ldrleb	r0, [r3, r0]
    4694:	d2000001 	andle	r0, r0, #1	; 0x1
    4698:	c3a00000 	movgt	r0, #0	; 0x0
    469c:	e1a0f00e 	mov	pc, lr
    46a0:	000052b0 	streqh	r5, [r0], -r0

000046a4 <std_isxdigit>:
    46a4:	e35000ff 	cmp	r0, #255	; 0xff
    46a8:	d59f300c 	ldrle	r3, [pc, #12]	; 46bc <std_isxdigit+0x18>
    46ac:	d7d30000 	ldrleb	r0, [r3, r0]
    46b0:	d2000011 	andle	r0, r0, #17	; 0x11
    46b4:	c3a00000 	movgt	r0, #0	; 0x0
    46b8:	e1a0f00e 	mov	pc, lr
    46bc:	000052b0 	streqh	r5, [r0], -r0

000046c0 <std_isspace>:
    46c0:	e35000ff 	cmp	r0, #255	; 0xff
    46c4:	d59f300c 	ldrle	r3, [pc, #12]	; 46d8 <std_isspace+0x18>
    46c8:	d7d30000 	ldrleb	r0, [r3, r0]
    46cc:	d2000002 	andle	r0, r0, #2	; 0x2
    46d0:	c3a00000 	movgt	r0, #0	; 0x0
    46d4:	e1a0f00e 	mov	pc, lr
    46d8:	000052b0 	streqh	r5, [r0], -r0

000046dc <std_ispunct>:
    46dc:	e35000ff 	cmp	r0, #255	; 0xff
    46e0:	d59f300c 	ldrle	r3, [pc, #12]	; 46f4 <std_ispunct+0x18>
    46e4:	d7d30000 	ldrleb	r0, [r3, r0]
    46e8:	d2000080 	andle	r0, r0, #128	; 0x80
    46ec:	c3a00000 	movgt	r0, #0	; 0x0
    46f0:	e1a0f00e 	mov	pc, lr
    46f4:	000052b0 	streqh	r5, [r0], -r0

000046f8 <std_isalnum>:
    46f8:	e35000ff 	cmp	r0, #255	; 0xff
    46fc:	d59f300c 	ldrle	r3, [pc, #12]	; 4710 <std_isalnum+0x18>
    4700:	d7d30000 	ldrleb	r0, [r3, r0]
    4704:	d200000d 	andle	r0, r0, #13	; 0xd
    4708:	c3a00000 	movgt	r0, #0	; 0x0
    470c:	e1a0f00e 	mov	pc, lr
    4710:	000052b0 	streqh	r5, [r0], -r0

00004714 <std_isprint>:
    4714:	e35000ff 	cmp	r0, #255	; 0xff
    4718:	d59f300c 	ldrle	r3, [pc, #12]	; 472c <std_isprint+0x18>
    471c:	d7d30000 	ldrleb	r0, [r3, r0]
    4720:	d20000cd 	andle	r0, r0, #205	; 0xcd
    4724:	c3a00000 	movgt	r0, #0	; 0x0
    4728:	e1a0f00e 	mov	pc, lr
    472c:	000052b0 	streqh	r5, [r0], -r0

00004730 <std_isgraph>:
    4730:	e35000ff 	cmp	r0, #255	; 0xff
    4734:	d59f300c 	ldrle	r3, [pc, #12]	; 4748 <std_isgraph+0x18>
    4738:	d7d30000 	ldrleb	r0, [r3, r0]
    473c:	d200008d 	andle	r0, r0, #141	; 0x8d
    4740:	c3a00000 	movgt	r0, #0	; 0x0
    4744:	e1a0f00e 	mov	pc, lr
    4748:	000052b0 	streqh	r5, [r0], -r0

0000474c <std_iscntrl>:
    474c:	e35000ff 	cmp	r0, #255	; 0xff
    4750:	d59f300c 	ldrle	r3, [pc, #12]	; 4764 <std_iscntrl+0x18>
    4754:	d7d30000 	ldrleb	r0, [r3, r0]
    4758:	d2000020 	andle	r0, r0, #32	; 0x20
    475c:	c3a00000 	movgt	r0, #0	; 0x0
    4760:	e1a0f00e 	mov	pc, lr
    4764:	000052b0 	streqh	r5, [r0], -r0

00004768 <std_toupper>:
    4768:	e35000ff 	cmp	r0, #255	; 0xff
    476c:	c1a0f00e 	movgt	pc, lr
    4770:	e1a02000 	mov	r2, r0
    4774:	e59f3010 	ldr	r3, [pc, #16]	; 478c <std_toupper+0x24>
    4778:	e7d33000 	ldrb	r3, [r3, r0]
    477c:	e3130008 	tst	r3, #8	; 0x8
    4780:	12402020 	subne	r2, r0, #32	; 0x20
    4784:	e1a00002 	mov	r0, r2
    4788:	e1a0f00e 	mov	pc, lr
    478c:	000052b0 	streqh	r5, [r0], -r0

00004790 <std_tolower>:
    4790:	e1a02000 	mov	r2, r0
    4794:	e35200ff 	cmp	r2, #255	; 0xff
    4798:	d59f3014 	ldrle	r3, [pc, #20]	; 47b4 <std_tolower+0x24>
    479c:	d7d30002 	ldrleb	r0, [r3, r2]
    47a0:	d1a00180 	movle	r0, r0, lsl #3
    47a4:	d2000020 	andle	r0, r0, #32	; 0x20
    47a8:	d0800002 	addle	r0, r0, r2
    47ac:	c1a00002 	movgt	r0, r2
    47b0:	e1a0f00e 	mov	pc, lr
    47b4:	000052b0 	streqh	r5, [r0], -r0

000047b8 <__udivsi3>:
    47b8:	e3510000 	cmp	r1, #0	; 0x0
    47bc:	0a00001f 	beq	4840 <__udivsi3+0x88>
    47c0:	e3a03001 	mov	r3, #1	; 0x1
    47c4:	e3a02000 	mov	r2, #0	; 0x0
    47c8:	e1500001 	cmp	r0, r1
    47cc:	3a000019 	bcc	4838 <__udivsi3+0x80>
    47d0:	e3510201 	cmp	r1, #268435456	; 0x10000000
    47d4:	31510000 	cmpcc	r1, r0
    47d8:	31a01201 	movcc	r1, r1, lsl #4
    47dc:	31a03203 	movcc	r3, r3, lsl #4
    47e0:	3afffffa 	bcc	47d0 <__udivsi3+0x18>
    47e4:	e3510102 	cmp	r1, #-2147483648	; 0x80000000
    47e8:	31510000 	cmpcc	r1, r0
    47ec:	31a01081 	movcc	r1, r1, lsl #1
    47f0:	31a03083 	movcc	r3, r3, lsl #1
    47f4:	3afffffa 	bcc	47e4 <__udivsi3+0x2c>
    47f8:	e1500001 	cmp	r0, r1
    47fc:	20400001 	subcs	r0, r0, r1
    4800:	21822003 	orrcs	r2, r2, r3
    4804:	e15000a1 	cmp	r0, r1, lsr #1
    4808:	204000a1 	subcs	r0, r0, r1, lsr #1
    480c:	218220a3 	orrcs	r2, r2, r3, lsr #1
    4810:	e1500121 	cmp	r0, r1, lsr #2
    4814:	20400121 	subcs	r0, r0, r1, lsr #2
    4818:	21822123 	orrcs	r2, r2, r3, lsr #2
    481c:	e15001a1 	cmp	r0, r1, lsr #3
    4820:	204001a1 	subcs	r0, r0, r1, lsr #3
    4824:	218221a3 	orrcs	r2, r2, r3, lsr #3
    4828:	e3500000 	cmp	r0, #0	; 0x0
    482c:	11b03223 	movnes	r3, r3, lsr #4
    4830:	11a01221 	movne	r1, r1, lsr #4
    4834:	1affffef 	bne	47f8 <__udivsi3+0x40>
    4838:	e1a00002 	mov	r0, r2
    483c:	e1a0f00e 	mov	pc, lr
    4840:	e52de004 	str	lr, [sp, -#4]!
    4844:	eb00005d 	bl	49c0 <__div0>
    4848:	e3a00000 	mov	r0, #0	; 0x0
    484c:	e8bd8000 	ldmia	sp!, {pc}

00004850 <__divsi3>:
    4850:	e020c001 	eor	ip, r0, r1
    4854:	e3a03001 	mov	r3, #1	; 0x1
    4858:	e3a02000 	mov	r2, #0	; 0x0
    485c:	e3510000 	cmp	r1, #0	; 0x0
    4860:	42611000 	rsbmi	r1, r1, #0	; 0x0
    4864:	0a000021 	beq	48f0 <__divsi3+0xa0>
    4868:	e3500000 	cmp	r0, #0	; 0x0
    486c:	42600000 	rsbmi	r0, r0, #0	; 0x0
    4870:	e1500001 	cmp	r0, r1
    4874:	3a000019 	bcc	48e0 <__divsi3+0x90>
    4878:	e3510201 	cmp	r1, #268435456	; 0x10000000
    487c:	31510000 	cmpcc	r1, r0
    4880:	31a01201 	movcc	r1, r1, lsl #4
    4884:	31a03203 	movcc	r3, r3, lsl #4
    4888:	3afffffa 	bcc	4878 <__divsi3+0x28>
    488c:	e3510102 	cmp	r1, #-2147483648	; 0x80000000
    4890:	31510000 	cmpcc	r1, r0
    4894:	31a01081 	movcc	r1, r1, lsl #1
    4898:	31a03083 	movcc	r3, r3, lsl #1
    489c:	3afffffa 	bcc	488c <__divsi3+0x3c>
    48a0:	e1500001 	cmp	r0, r1
    48a4:	20400001 	subcs	r0, r0, r1
    48a8:	21822003 	orrcs	r2, r2, r3
    48ac:	e15000a1 	cmp	r0, r1, lsr #1
    48b0:	204000a1 	subcs	r0, r0, r1, lsr #1
    48b4:	218220a3 	orrcs	r2, r2, r3, lsr #1
    48b8:	e1500121 	cmp	r0, r1, lsr #2
    48bc:	20400121 	subcs	r0, r0, r1, lsr #2
    48c0:	21822123 	orrcs	r2, r2, r3, lsr #2
    48c4:	e15001a1 	cmp	r0, r1, lsr #3
    48c8:	204001a1 	subcs	r0, r0, r1, lsr #3
    48cc:	218221a3 	orrcs	r2, r2, r3, lsr #3
    48d0:	e3500000 	cmp	r0, #0	; 0x0
    48d4:	11b03223 	movnes	r3, r3, lsr #4
    48d8:	11a01221 	movne	r1, r1, lsr #4
    48dc:	1affffef 	bne	48a0 <__divsi3+0x50>
    48e0:	e1a00002 	mov	r0, r2
    48e4:	e35c0000 	cmp	ip, #0	; 0x0
    48e8:	42600000 	rsbmi	r0, r0, #0	; 0x0
    48ec:	e1a0f00e 	mov	pc, lr
    48f0:	e52de004 	str	lr, [sp, -#4]!
    48f4:	eb000031 	bl	49c0 <__div0>
    48f8:	e3a00000 	mov	r0, #0	; 0x0
    48fc:	e8bd8000 	ldmia	sp!, {pc}

00004900 <__umodsi3>:
    4900:	e3510000 	cmp	r1, #0	; 0x0
    4904:	0a000029 	beq	49b0 <__umodsi3+0xb0>
    4908:	e3510001 	cmp	r1, #1	; 0x1
    490c:	11500001 	cmpne	r0, r1
    4910:	03a00000 	moveq	r0, #0	; 0x0
    4914:	31a0f00e 	movcc	pc, lr
    4918:	e3a03001 	mov	r3, #1	; 0x1
    491c:	e3510201 	cmp	r1, #268435456	; 0x10000000
    4920:	31510000 	cmpcc	r1, r0
    4924:	31a01201 	movcc	r1, r1, lsl #4
    4928:	31a03203 	movcc	r3, r3, lsl #4
    492c:	3afffffa 	bcc	491c <__umodsi3+0x1c>
    4930:	e3510102 	cmp	r1, #-2147483648	; 0x80000000
    4934:	31510000 	cmpcc	r1, r0
    4938:	31a01081 	movcc	r1, r1, lsl #1
    493c:	31a03083 	movcc	r3, r3, lsl #1
    4940:	3afffffa 	bcc	4930 <__umodsi3+0x30>
    4944:	e3a02000 	mov	r2, #0	; 0x0
    4948:	e1500001 	cmp	r0, r1
    494c:	20400001 	subcs	r0, r0, r1
    4950:	e15000a1 	cmp	r0, r1, lsr #1
    4954:	204000a1 	subcs	r0, r0, r1, lsr #1
    4958:	218220e3 	orrcs	r2, r2, r3, ror #1
    495c:	e1500121 	cmp	r0, r1, lsr #2
    4960:	20400121 	subcs	r0, r0, r1, lsr #2
    4964:	21822163 	orrcs	r2, r2, r3, ror #2
    4968:	e15001a1 	cmp	r0, r1, lsr #3
    496c:	204001a1 	subcs	r0, r0, r1, lsr #3
    4970:	218221e3 	orrcs	r2, r2, r3, ror #3
    4974:	e1a0c003 	mov	ip, r3
    4978:	e3500000 	cmp	r0, #0	; 0x0
    497c:	11b03223 	movnes	r3, r3, lsr #4
    4980:	11a01221 	movne	r1, r1, lsr #4
    4984:	1affffee 	bne	4944 <__umodsi3+0x44>
    4988:	e212220e 	ands	r2, r2, #-536870912	; 0xe0000000
    498c:	131c0007 	tstne	ip, #7	; 0x7
    4990:	0a000005 	beq	49ac <__umodsi3+0xac>
    4994:	e11201ec 	tst	r2, ip, ror #3
    4998:	108001a1 	addne	r0, r0, r1, lsr #3
    499c:	e112016c 	tst	r2, ip, ror #2
    49a0:	10800121 	addne	r0, r0, r1, lsr #2
    49a4:	e11200ec 	tst	r2, ip, ror #1
    49a8:	108000a1 	addne	r0, r0, r1, lsr #1
    49ac:	e1a0f00e 	mov	pc, lr
    49b0:	e52de004 	str	lr, [sp, -#4]!
    49b4:	eb000001 	bl	49c0 <__div0>
    49b8:	e3a00000 	mov	r0, #0	; 0x0
    49bc:	e8bd8000 	ldmia	sp!, {pc}

000049c0 <__div0>:
    49c0:	e1a0f00e 	mov	pc, lr
Disassembly of section .rodata:

000049c4 <pTOC-0x838>:
    49c4:	00082008 	andeq	r2, r8, r8
    49c8:	6f6d654d 	swivs	0x006d654d
    49cc:	54207972 	strplt	r7, [r0], -#2418
    49d0:	28747365 	ldmcsda	r4!, {r0, r2, r5, r6, r8, r9, ip, sp, lr}^
    49d4:	2d687825 	stccsl	8, cr7, [r8, -#148]!
    49d8:	29687825 	stmcsdb	r8!, {r0, r2, r5, fp, ip, sp, lr}^
    49dc:	0052573a 	subeqs	r5, r2, sl, lsr r7
    49e0:	44520808 	ldrmib	r0, [r2], -#2056
    49e4:	00000000 	andeq	r0, r0, r0
    49e8:	41460808 	cmpmi	r6, r8, lsl #16
    49ec:	303a4c49 	eorccs	r4, sl, r9, asr #24
    49f0:	3d782578 	ldcccl	5, cr2, [r8, -#480]!
    49f4:	78257830 	stmvcda	r5!, {r4, r5, fp, ip, sp, lr}
    49f8:	0000000a 	andeq	r0, r0, sl
    49fc:	2e4f0808 	cdpcs	8, 4, cr0, cr15, cr8, {0}
    4a00:	000a2e4b 	andeq	r2, sl, fp, asr #28
    4a04:	2d2d2d2b 	stccs	13, cr2, [sp, -#172]!
    4a08:	2d2d2d2d 	stccs	13, cr2, [sp, -#180]!
    4a0c:	2d2d2d2d 	stccs	13, cr2, [sp, -#180]!
    4a10:	2d2d2d2d 	stccs	13, cr2, [sp, -#180]!
    4a14:	2d2d2d2d 	stccs	13, cr2, [sp, -#180]!
    4a18:	2d2d2d2d 	stccs	13, cr2, [sp, -#180]!
    4a1c:	2d2d2d2d 	stccs	13, cr2, [sp, -#180]!
    4a20:	2d2d2d2d 	stccs	13, cr2, [sp, -#180]!
    4a24:	2d2d2d2d 	stccs	13, cr2, [sp, -#180]!
    4a28:	2d2d2d2d 	stccs	13, cr2, [sp, -#180]!
    4a2c:	2d2d2d2d 	stccs	13, cr2, [sp, -#180]!
    4a30:	0a2b2d2d 	beq	acfeec <_stack+0xa4feec>
    4a34:	00000000 	andeq	r0, r0, r0
    4a38:	6c6c6548 	stcvsl	5, cr6, [ip], -#288
    4a3c:	4b202c6f 	blmi	80fc00 <_stack+0x78fc00>
    4a40:	6d676e69 	stcvsl	14, cr6, [r7, -#420]!
    4a44:	0d2e736f 	stceq	3, cr7, [lr, -#444]!
    4a48:	0000000a 	andeq	r0, r0, sl
    4a4c:	6c6c6548 	stcvsl	5, cr6, [ip], -#288
    4a50:	4b202c6f 	blmi	80fc14 <_stack+0x78fc14>
    4a54:	6d676e69 	stcvsl	14, cr6, [r7, -#420]!
    4a58:	7720736f 	strvc	r7, [r0, -pc, ror #6]!
    4a5c:	20687469 	rsbcs	r7, r8, r9, ror #8
    4a60:	74726155 	ldrvcbt	r6, [r2], -#341
    4a64:	000a0d2e 	andeq	r0, sl, lr, lsr #26
    4a68:	00000a0a 	andeq	r0, r0, sl, lsl #20
    4a6c:	20727041 	rsbcss	r7, r2, r1, asr #32
    4a70:	32203531 	eorcc	r3, r0, #205520896	; 0xc400000
    4a74:	00343030 	eoreqs	r3, r4, r0, lsr r0
    4a78:	343a3431 	ldrcct	r3, [sl], -#1073
    4a7c:	36333a30 	undefined
    4a80:	00000000 	andeq	r0, r0, r0
    4a84:	3353207c 	cmpcc	r3, #124	; 0x7c
    4a88:	31343243 	teqcc	r4, r3, asr #4
    4a8c:	55205830 	strpl	r5, [r0, -#2096]!
    4a90:	44204253 	strmit	r4, [r0], -#595
    4a94:	6c6e776f 	stcvsl	7, cr7, [lr], -#444
    4a98:	6564616f 	strvsb	r6, [r4, -#367]!
    4a9c:	65762072 	ldrvsb	r2, [r6, -#114]!
    4aa0:	31522072 	cmpcc	r2, r2, ror r0
    4aa4:	2032312e 	eorcss	r3, r2, lr, lsr #2
    4aa8:	65746164 	ldrvsb	r6, [r4, -#356]!
    4aac:	29732528 	ldmcsdb	r3!, {r3, r5, r8, sl, sp}^
    4ab0:	6d69742c 	stcvsl	4, cr7, [r9, -#176]!
    4ab4:	73252865 	teqvc	r5, #6619136	; 0x650000
    4ab8:	0a7c2029 	beq	1f0cb64 <_stack+0x1e8cb64>
    4abc:	00000000 	andeq	r0, r0, r0
    4ac0:	00414d44 	subeq	r4, r1, r4, asr #26
    4ac4:	4b4c4346 	blmi	13157e4 <_stack+0x12957e4>
    4ac8:	4d64253d 	stcmil	5, cr2, [r4, -#244]!
    4acc:	252c7a48 	strcs	r7, [ip, -#2632]!
    4ad0:	6f6d2073 	swivs	0x006d2073
    4ad4:	000a6564 	andeq	r6, sl, r4, ror #10
    4ad8:	3a425355 	bcc	1099834 <_stack+0x1019834>
    4adc:	5f4e4920 	swipl	0x004e4920
    4ae0:	50444e45 	subpl	r4, r4, r5, asr #28
    4ae4:	544e494f 	strplb	r4, [lr], -#2383
    4ae8:	4f20313a 	swimi	0x0020313a
    4aec:	455f5455 	ldrmib	r5, [pc, #-1109]	; 469f <std_isdigit+0x17>
    4af0:	4f50444e 	swimi	0x0050444e
    4af4:	3a544e49 	bcc	1518420 <_stack+0x1498420>
    4af8:	00000a33 	andeq	r0, r0, r3, lsr sl
    4afc:	4d524f46 	ldcmil	15, cr4, [r2, -#280]
    4b00:	203a5441 	eorcss	r5, sl, r1, asr #8
    4b04:	4444413c 	strmib	r4, [r4], -#316
    4b08:	41442852 	cmpmi	r4, r2, asr r8
    4b0c:	3a294154 	bcc	a55064 <_stack+0x9d5064>
    4b10:	3c2b3e34 	stccc	14, cr3, [fp], -#208
    4b14:	455a4953 	ldrmib	r4, [sl, -#2387]
    4b18:	312b6e28 	teqcc	fp, r8, lsr #28
    4b1c:	343a2930 	ldrcct	r2, [sl], -#2352
    4b20:	443c2b3e 	ldrmit	r2, [ip], -#2878
    4b24:	3a415441 	bcc	1059c30 <_stack+0xfd9c30>
    4b28:	3c2b3e6e 	stccc	14, cr3, [fp], -#440
    4b2c:	323a5343 	eorccs	r5, sl, #201326593	; 0xc000001
    4b30:	00000a3e 	andeq	r0, r0, lr, lsr sl
    4b34:	45544f4e 	ldrmib	r4, [r4, -#3918]
    4b38:	2e31203a 	mrccs	0, 1, r2, cr1, cr10, {1}
    4b3c:	776f5020 	strvcb	r5, [pc, -r0, lsr #32]!
    4b40:	6f207265 	swivs	0x00207265
    4b44:	6f2f6666 	swivs	0x002f6666
    4b48:	726f206e 	rsbvc	r2, pc, #110	; 0x6e
    4b4c:	65727020 	ldrvsb	r7, [r2, -#32]!
    4b50:	74207373 	strvct	r7, [r0], -#883
    4b54:	72206568 	eorvc	r6, r0, #436207616	; 0x1a000000
    4b58:	74657365 	strvcbt	r7, [r5], -#869
    4b5c:	74756220 	ldrvcbt	r6, [r5], -#544
    4b60:	206e6f74 	rsbcs	r6, lr, r4, ror pc
    4b64:	20726f66 	rsbcss	r6, r2, r6, ror #30
    4b68:	65732031 	ldrvsb	r2, [r3, -#49]!
    4b6c:	00000a63 	andeq	r0, r0, r3, ror #20
    4b70:	20202020 	eorcs	r2, r0, r0, lsr #32
    4b74:	20202020 	eorcs	r2, r0, r0, lsr #32
    4b78:	206e6920 	rsbcs	r6, lr, r0, lsr #18
    4b7c:	6564726f 	strvsb	r7, [r4, -#623]!
    4b80:	6f742072 	swivs	0x00742072
    4b84:	74656720 	strvcbt	r6, [r5], -#1824
    4b88:	76206120 	strvct	r6, [r0], -r0, lsr #2
    4b8c:	64696c61 	strvsbt	r6, [r9], -#3169
    4b90:	42535520 	submis	r5, r3, #134217728	; 0x8000000
    4b94:	76656420 	strvcbt	r6, [r5], -r0, lsr #8
    4b98:	20656369 	rsbcs	r6, r5, r9, ror #6
    4b9c:	72646461 	rsbvc	r6, r4, #1627389952	; 0x61000000
    4ba0:	2e737365 	cdpcs	3, 7, cr7, cr3, cr5, {3}
    4ba4:	0000000a 	andeq	r0, r0, sl
    4ba8:	20202020 	eorcs	r2, r0, r0, lsr #32
    4bac:	2e322020 	cdpcs	0, 3, cr2, cr2, cr0, {1}
    4bb0:	726f4620 	rsbvc	r4, pc, #33554432	; 0x2000000
    4bb4:	64646120 	strvsbt	r6, [r4], -#288
    4bb8:	6f697469 	swivs	0x00697469
    4bbc:	206c616e 	rsbcs	r6, ip, lr, ror #2
    4bc0:	756e656d 	strvcb	r6, [lr, -#1389]!
    4bc4:	7250202c 	subvcs	r2, r0, #44	; 0x2c
    4bc8:	20737365 	rsbcss	r7, r3, r5, ror #6
    4bcc:	20796e61 	rsbcss	r6, r9, r1, ror #28
    4bd0:	2e79656b 	cdpcs	5, 7, cr6, cr9, cr11, {3}
    4bd4:	00000a20 	andeq	r0, r0, r0, lsr #20
    4bd8:	0000000a 	andeq	r0, r0, sl
    4bdc:	52544e49 	subpls	r4, r4, #1168	; 0x490
    4be0:	2e4e4f5f 	mcrcs	15, 2, r4, cr14, cr15, {2}
    4be4:	00000a0d 	andeq	r0, r0, sp, lsl #20
    4be8:	2323230a 	teqcs	r3, #671088640	; 0x28000000
    4bec:	20232323 	eorcs	r2, r3, r3, lsr #6
    4bf0:	656c6553 	strvsb	r6, [ip, -#1363]!
    4bf4:	4d207463 	stcmi	4, cr7, [r0, -#396]!
    4bf8:	20756e65 	rsbcss	r6, r5, r5, ror #28
    4bfc:	23232323 	teqcs	r3, #-1946157056	; 0x8c000000
    4c00:	000a2323 	andeq	r2, sl, r3, lsr #6
    4c04:	5d305b20 	ldcpl	11, cr5, [r0, -#128]!
    4c08:	776f4420 	strvcb	r4, [pc, -r0, lsr #8]!
    4c0c:	616f6c6e 	cmnvs	pc, lr, ror #24
    4c10:	20262064 	eorcs	r2, r6, r4, rrx
    4c14:	0a6e7552 	beq	1ba2164 <_stack+0x1b22164>
    4c18:	00000000 	andeq	r0, r0, r0
    4c1c:	5d315b20 	ldcpl	11, cr5, [r1, -#128]!
    4c20:	776f4420 	strvcb	r4, [pc, -r0, lsr #8]!
    4c24:	616f6c6e 	cmnvs	pc, lr, ror #24
    4c28:	6e4f2064 	cdpvs	0, 4, cr2, cr15, cr4, {3}
    4c2c:	000a796c 	andeq	r7, sl, ip, ror #18
    4c30:	5d325b20 	ldcpl	11, cr5, [r2, -#128]!
    4c34:	73655420 	cmnvc	r5, #536870912	; 0x20000000
    4c38:	44532074 	ldrmib	r2, [r3], -#116
    4c3c:	204d4152 	subcs	r4, sp, r2, asr r1
    4c40:	0000000a 	andeq	r0, r0, sl
    4c44:	5d335b20 	ldcpl	11, cr5, [r3, -#128]!
    4c48:	61684320 	cmnvs	r8, r0, lsr #6
    4c4c:	2065676e 	rsbcs	r6, r5, lr, ror #14
    4c50:	20656854 	rsbcs	r6, r5, r4, asr r8
    4c54:	736e6f43 	cmnvc	lr, #268	; 0x10c
    4c58:	20656c6f 	rsbcs	r6, r5, pc, ror #24
    4c5c:	54524155 	ldrplb	r4, [r2], -#341
    4c60:	2e684320 	cdpcs	3, 6, cr4, cr8, cr0, {1}
    4c64:	0000000a 	andeq	r0, r0, sl
    4c68:	776f440a 	strvcb	r4, [pc, -sl, lsl #8]!
    4c6c:	616f6c6e 	cmnvs	pc, lr, ror #24
    4c70:	6e4f2064 	cdpvs	0, 4, cr2, cr15, cr4, {3}
    4c74:	6920796c 	stmvsdb	r0!, {r2, r3, r5, r6, r8, fp, ip, sp, lr}
    4c78:	65732073 	ldrvsb	r2, [r3, -#115]!
    4c7c:	7463656c 	strvcbt	r6, [r3], -#1388
    4c80:	0a2e6465 	beq	b9de1c <_stack+0xb1de1c>
    4c84:	00000000 	andeq	r0, r0, r0
    4c88:	65746e45 	ldrvsb	r6, [r4, -#3653]!
    4c8c:	20612072 	rsbcs	r2, r1, r2, ror r0
    4c90:	2077656e 	rsbcss	r6, r7, lr, ror #10
    4c94:	706d6574 	rsbvc	r6, sp, r4, ror r5
    4c98:	7261726f 	rsbvc	r7, r1, #-268435450	; 0xf0000006
    4c9c:	6f642079 	swivs	0x00642079
    4ca0:	6f6c6e77 	swivs	0x006c6e77
    4ca4:	61206461 	teqvs	r0, r1, ror #8
    4ca8:	65726464 	ldrvsb	r6, [r2, -#1124]!
    4cac:	30287373 	eorcc	r7, r8, r3, ror r3
    4cb0:	2e2e3378 	mcrcs	3, 1, r3, cr14, cr8, {3}
    4cb4:	003a292e 	eoreqs	r2, sl, lr, lsr #18
    4cb8:	20656854 	rsbcs	r6, r5, r4, asr r8
    4cbc:	706d6574 	rsbvc	r6, sp, r4, ror r5
    4cc0:	7261726f 	rsbvc	r7, r1, #-268435450	; 0xf0000006
    4cc4:	6f642079 	swivs	0x00642079
    4cc8:	6f6c6e77 	swivs	0x006c6e77
    4ccc:	61206461 	teqvs	r0, r1, ror #8
    4cd0:	65726464 	ldrvsb	r6, [r2, -#1124]!
    4cd4:	69207373 	stmvsdb	r0!, {r0, r1, r4, r5, r6, r8, r9, ip, sp, lr}
    4cd8:	78302073 	ldmvcda	r0!, {r0, r1, r4, r5, r6, sp}
    4cdc:	0a2e7825 	beq	ba2d78 <_stack+0xb22d78>
    4ce0:	0000000a 	andeq	r0, r0, sl
    4ce4:	776f440a 	strvcb	r4, [pc, -sl, lsl #8]!
    4ce8:	616f6c6e 	cmnvs	pc, lr, ror #24
    4cec:	75522664 	ldrvcb	r2, [r2, -#1636]
    4cf0:	7369206e 	cmnvc	r9, #110	; 0x6e
    4cf4:	6c657320 	stcvsl	3, cr7, [r5], -#128
    4cf8:	65746365 	ldrvsb	r6, [r4, -#869]!
    4cfc:	0a0a2e64 	beq	290694 <_stack+0x210694>
    4d00:	00000000 	andeq	r0, r0, r0
    4d04:	6d654d0a 	stcvsl	13, cr4, [r5, -#40]!
    4d08:	2079726f 	rsbcss	r7, r9, pc, ror #4
    4d0c:	74736554 	ldrvcbt	r6, [r3], -#1364
    4d10:	20736920 	rsbcss	r6, r3, r0, lsr #18
    4d14:	656c6573 	strvsb	r6, [ip, -#1395]!
    4d18:	64657463 	strvsbt	r7, [r5], -#1123
    4d1c:	00000a2e 	andeq	r0, r0, lr, lsr #20
    4d20:	6968570a 	stmvsdb	r8!, {r1, r3, r8, r9, sl, ip, lr}^
    4d24:	55206863 	strpl	r6, [r0, -#2147]!
    4d28:	20545241 	subcss	r5, r4, r1, asr #4
    4d2c:	6e616863 	cdpvs	8, 6, cr6, cr1, cr3, {3}
    4d30:	206c656e 	rsbcs	r6, ip, lr, ror #10
    4d34:	79206f64 	stmvcdb	r0!, {r2, r5, r6, r8, r9, sl, fp, sp, lr}
    4d38:	7720756f 	strvc	r7, [r0, -pc, ror #10]!
    4d3c:	20746e61 	rsbcss	r6, r4, r1, ror #28
    4d40:	75206f74 	strvc	r6, [r0, -#3956]!
    4d44:	66206573 	undefined
    4d48:	7420726f 	strvct	r7, [r0], -#623
    4d4c:	63206568 	teqvs	r0, #436207616	; 0x1a000000
    4d50:	6f736e6f 	swivs	0x00736e6f
    4d54:	5b3f656c 	blpl	fde30c <_stack+0xf5e30c>
    4d58:	5d312f30 	ldcpl	15, cr2, [r1, -#192]!
    4d5c:	0000000a 	andeq	r0, r0, sl
    4d60:	54524155 	ldrplb	r4, [r2], -#341
    4d64:	2e686320 	cdpcs	3, 6, cr6, cr8, cr0, {1}
    4d68:	69772030 	ldmvsdb	r7!, {r4, r5, sp}^
    4d6c:	62206c6c 	eorvs	r6, r0, #27648	; 0x6c00
    4d70:	73752065 	cmnvc	r5, #101	; 0x65
    4d74:	66206465 	strvst	r6, [r0], -r5, ror #8
    4d78:	6320726f 	teqvs	r0, #-268435450	; 0xf0000006
    4d7c:	6f736e6f 	swivs	0x00736e6f
    4d80:	6120656c 	teqvs	r0, ip, ror #10
    4d84:	656e2074 	strvsb	r2, [lr, -#116]!
    4d88:	62207478 	eorvs	r7, r0, #2013265920	; 0x78000000
    4d8c:	2e746f6f 	cdpcs	15, 7, cr6, cr4, cr15, {3}
    4d90:	0000000a 	andeq	r0, r0, sl
    4d94:	74737953 	ldrvcbt	r7, [r3], -#2387
    4d98:	69206d65 	stmvsdb	r0!, {r0, r2, r5, r6, r8, sl, fp, sp, lr}
    4d9c:	61772073 	cmnvs	r7, r3, ror r0
    4da0:	6e697469 	cdpvs	4, 6, cr7, cr9, cr9, {3}
    4da4:	6f662067 	swivs	0x00662067
    4da8:	20612072 	rsbcs	r2, r1, r2, ror r0
    4dac:	65736572 	ldrvsb	r6, [r3, -#1394]!
    4db0:	50202e74 	eorpl	r2, r0, r4, ror lr
    4db4:	7361656c 	cmnvc	r1, #452984832	; 0x1b000000
    4db8:	52202c65 	eorpl	r2, r0, #25856	; 0x6500
    4dbc:	6f6f6265 	swivs	0x006f6265
    4dc0:	21212174 	teqcs	r1, r4, ror r1
    4dc4:	0000000a 	andeq	r0, r0, sl
    4dc8:	54524155 	ldrplb	r4, [r2], -#341
    4dcc:	2e686320 	cdpcs	3, 6, cr6, cr8, cr0, {1}
    4dd0:	69772031 	ldmvsdb	r7!, {r0, r4, r5, sp}^
    4dd4:	62206c6c 	eorvs	r6, r0, #27648	; 0x6c00
    4dd8:	73752065 	cmnvc	r5, #101	; 0x65
    4ddc:	66206465 	strvst	r6, [r0], -r5, ror #8
    4de0:	6320726f 	teqvs	r0, #-268435450	; 0xf0000006
    4de4:	6f736e6f 	swivs	0x00736e6f
    4de8:	6120656c 	teqvs	r0, ip, ror #10
    4dec:	656e2074 	strvsb	r2, [lr, -#116]!
    4df0:	62207478 	eorvs	r7, r0, #2013265920	; 0x78000000
    4df4:	2e746f6f 	cdpcs	15, 7, cr6, cr4, cr15, {3}
    4df8:	0000000a 	andeq	r0, r0, sl
    4dfc:	54524155 	ldrplb	r4, [r2], -#341
    4e00:	2e686320 	cdpcs	3, 6, cr6, cr8, cr0, {1}
    4e04:	69772030 	ldmvsdb	r7!, {r4, r5, sp}^
    4e08:	62206c6c 	eorvs	r6, r0, #27648	; 0x6c00
    4e0c:	73752065 	cmnvc	r5, #101	; 0x65
    4e10:	61206465 	teqvs	r0, r5, ror #8
    4e14:	72657466 	rsbvc	r7, r5, #1711276032	; 0x66000000
    4e18:	6e6f6c20 	cdpvs	12, 6, cr6, cr15, cr0, {1}
    4e1c:	6f702067 	swivs	0x00702067
    4e20:	2d726577 	ldccsl	5, cr6, [r2, -#476]!
    4e24:	2e66666f 	cdpcs	6, 6, cr6, cr6, cr15, {3}
    4e28:	0000000a 	andeq	r0, r0, sl
    4e2c:	776f4e0a 	strvcb	r4, [pc, -sl, lsl #28]!
    4e30:	6f44202c 	swivs	0x0044202c
    4e34:	6f6c6e77 	swivs	0x006c6e77
    4e38:	6e696461 	cdpvs	4, 6, cr6, cr9, cr1, {3}
    4e3c:	415b2067 	cmpmi	fp, r7, rrx
    4e40:	45524444 	ldrmib	r4, [r2, -#1092]
    4e44:	253a5353 	ldrcs	r5, [sl, -#851]!
    4e48:	542c6878 	strplt	r6, [ip], -#2168
    4e4c:	4c41544f 	mcrrmi	4, 4, r5, r1, cr15
    4e50:	5d64253a 	stcpll	5, cr2, [r4, -#232]!
    4e54:	0000000a 	andeq	r0, r0, sl
    4e58:	45434552 	strmib	r4, [r3, -#1362]
    4e5c:	44455649 	strmib	r5, [r5], -#1609
    4e60:	4c494620 	mcrrmi	6, 2, r4, r9, cr0
    4e64:	49532045 	ldmmidb	r3, {r0, r2, r6, sp}^
    4e68:	253a455a 	ldrcs	r4, [sl, -#1370]!
    4e6c:	00006438 	andeq	r6, r0, r8, lsr r4
    4e70:	08080808 	stmeqda	r8, {r3, fp}
    4e74:	08080808 	stmeqda	r8, {r3, fp}
    4e78:	00643825 	rsbeq	r3, r4, r5, lsr #16
    4e7c:	2c776f4e 	ldccsl	15, cr6, [r7], -#312
    4e80:	65684320 	strvsb	r4, [r8, -#800]!
    4e84:	75736b63 	ldrvcb	r6, [r3, -#2915]!
    4e88:	6163206d 	cmnvs	r3, sp, rrx
    4e8c:	6c75636c 	ldcvsl	3, cr6, [r5], -#432
    4e90:	6f697461 	swivs	0x00697461
    4e94:	00000a6e 	andeq	r0, r0, lr, ror #20
    4e98:	63656843 	cmnvs	r5, #4390912	; 0x430000
    4e9c:	6d75736b 	ldcvsl	3, cr7, [r5, -#428]!
    4ea0:	72724520 	rsbvcs	r4, r2, #134217728	; 0x8000000
    4ea4:	2121726f 	teqcs	r1, pc, ror #4
    4ea8:	454d2021 	strmib	r2, [sp, -#33]
    4eac:	78253a4d 	stmvcda	r5!, {r0, r2, r3, r6, r9, fp, ip, sp}
    4eb0:	3a4e4420 	bcc	1395f38 <_stack+0x1315f38>
    4eb4:	000a7825 	andeq	r7, sl, r5, lsr #16
    4eb8:	6e776f44 	cdpvs	15, 7, cr6, cr7, cr4, {2}
    4ebc:	64616f6c 	strvsbt	r6, [r1], -#3948
    4ec0:	4b2e4f20 	blmi	b98b48 <_stack+0xb18b48>
    4ec4:	000a0a2e 	andeq	r0, sl, lr, lsr #20
    4ec8:	20425355 	subcs	r5, r2, r5, asr r3
    4ecc:	74736f68 	ldrvcbt	r6, [r3], -#3944
    4ed0:	20736920 	rsbcss	r6, r3, r0, lsr #18
    4ed4:	6e6e6f63 	cdpvs	15, 6, cr6, cr14, cr3, {3}
    4ed8:	65746365 	ldrvsb	r6, [r4, -#869]!
    4edc:	57202e64 	strpl	r2, [r0, -r4, ror #28]!
    4ee0:	69746961 	ldmvsdb	r4!, {r0, r5, r6, r8, fp, sp, lr}^
    4ee4:	6120676e 	teqvs	r0, lr, ror #14
    4ee8:	776f6420 	strvcb	r6, [pc, -r0, lsr #8]!
    4eec:	616f6c6e 	cmnvs	pc, lr, ror #24
    4ef0:	000a2e64 	andeq	r2, sl, r4, ror #28
    4ef4:	20425355 	subcs	r5, r2, r5, asr r3
    4ef8:	74736f68 	ldrvcbt	r6, [r3], -#3944
    4efc:	20736920 	rsbcss	r6, r3, r0, lsr #18
    4f00:	20746f6e 	rsbcss	r6, r4, lr, ror #30
    4f04:	6e6e6f63 	cdpvs	15, 6, cr6, cr14, cr3, {3}
    4f08:	65746365 	ldrvsb	r6, [r4, -#869]!
    4f0c:	65792064 	ldrvsb	r2, [r9, -#100]!
    4f10:	000a2e74 	andeq	r2, sl, r4, ror lr
    4f14:	65646e55 	strvsb	r6, [r4, -#3669]!
    4f18:	656e6966 	strvsb	r6, [lr, -#2406]!
    4f1c:	6e692064 	cdpvs	0, 6, cr2, cr9, cr4, {3}
    4f20:	75727473 	ldrvcb	r7, [r2, -#1139]!
    4f24:	6f697463 	swivs	0x00697463
    4f28:	7865206e 	stmvcda	r5!, {r1, r2, r3, r5, r6, sp}^
    4f2c:	74706563 	ldrvcbt	r6, [r0], -#1379
    4f30:	216e6f69 	cmncs	lr, r9, ror #30
    4f34:	000a2121 	andeq	r2, sl, r1, lsr #2
    4f38:	20495753 	subcs	r5, r9, r3, asr r7
    4f3c:	65637865 	strvsb	r7, [r3, -#2149]!
    4f40:	6f697470 	swivs	0x00697470
    4f44:	2121216e 	teqcs	r1, lr, ror #2
    4f48:	0000000a 	andeq	r0, r0, sl
    4f4c:	6f626150 	swivs	0x00626150
    4f50:	65207472 	strvs	r7, [r0, -#1138]!
    4f54:	70656378 	rsbvc	r6, r5, r8, ror r3
    4f58:	6e6f6974 	mcrvs	9, 3, r6, cr15, cr4, {3}
    4f5c:	0a212121 	beq	84d3e8 <_stack+0x7cd3e8>
    4f60:	00000000 	andeq	r0, r0, r0
    4f64:	6f626144 	swivs	0x00626144
    4f68:	65207472 	strvs	r7, [r0, -#1138]!
    4f6c:	70656378 	rsbvc	r6, r5, r8, ror r3
    4f70:	6e6f6974 	mcrvs	9, 3, r6, cr15, cr4, {3}
    4f74:	0a212121 	beq	84d400 <_stack+0x7cd400>
    4f78:	00000000 	andeq	r0, r0, r0
    4f7c:	253a313c 	ldrcs	r3, [sl, -#316]!
    4f80:	00005d78 	andeq	r5, r0, r8, ror sp
    4f84:	4154535b 	cmpmi	r4, fp, asr r3
    4f88:	005d4c4c 	subeqs	r4, sp, ip, asr #24
    4f8c:	495f425b 	ldmmidb	pc, {r0, r1, r3, r4, r6, r9, lr}^
    4f90:	64253a4e 	strvst	r3, [r5], -#2638
    4f94:	0000003a 	andeq	r0, r0, sl, lsr r0
    4f98:	002c7825 	eoreq	r7, ip, r5, lsr #16
    4f9c:	0000005d 	andeq	r0, r0, sp, asr r0
    4fa0:	495b3a55 	ldmmidb	fp, {r0, r2, r4, r6, r9, fp, ip, sp}^
    4fa4:	453a544e 	ldrmi	r5, [sl, -#1102]!
    4fa8:	3d495f50 	stcccl	15, cr5, [r9, -#320]
    4fac:	552c7825 	strpl	r7, [ip, -#2085]!
    4fb0:	3d494253 	sfmcc	f4, 2, [r9, -#332]
    4fb4:	2e5d7825 	cdpcs	8, 5, cr7, cr13, cr5, {1}
    4fb8:	00000a0d 	andeq	r0, r0, sp, lsl #20
    4fbc:	5355533c 	cmppl	r5, #-268435456	; 0xf0000000
    4fc0:	0000005d 	andeq	r0, r0, sp, asr r0
    4fc4:	50535553 	subpls	r5, r3, r3, asr r5
    4fc8:	5f444e45 	swipl	0x00444e45
    4fcc:	2e544e49 	cdpcs	14, 5, cr4, cr4, cr9, {2}
    4fd0:	00000a0d 	andeq	r0, r0, sp, lsl #20
    4fd4:	4d53523c 	lfmmi	f5, 2, [r3, -#240]
    4fd8:	0000005d 	andeq	r0, r0, sp, asr r0
    4fdc:	55534552 	ldrplb	r4, [r3, -#1362]
    4fe0:	495f454d 	ldmmidb	pc, {r0, r2, r3, r6, r8, sl, lr}^
    4fe4:	0d2e544e 	stceq	4, cr5, [lr, -#312]!
    4fe8:	0000000a 	andeq	r0, r0, sl
    4fec:	5453523c 	ldrplb	r5, [r3], -#572
    4ff0:	0000005d 	andeq	r0, r0, sp, asr r0
    4ff4:	45534552 	ldrmib	r4, [r3, -#1362]
    4ff8:	4e495f54 	mcrmi	15, 2, r5, cr9, cr4, {2}
    4ffc:	0a0d2e54 	beq	350954 <_stack+0x2d0954>
    5000:	00000000 	andeq	r0, r0, r0
    5004:	5f305045 	swipl	0x00305045
    5008:	2e544e49 	cdpcs	14, 5, cr4, cr4, cr9, {2}
    500c:	00000a0d 	andeq	r0, r0, sp, lsl #20
    5010:	5f315045 	swipl	0x00315045
    5014:	2e544e49 	cdpcs	14, 5, cr4, cr4, cr9, {2}
    5018:	00000a0d 	andeq	r0, r0, sp, lsl #20
    501c:	543a323c 	ldrplt	r3, [sl], -#572
    5020:	005d4442 	subeqs	r4, sp, r2, asr #8
    5024:	5f325045 	swipl	0x00325045
    5028:	2e544e49 	cdpcs	14, 5, cr4, cr4, cr9, {2}
    502c:	00000a0d 	andeq	r0, r0, sp, lsl #20
    5030:	5f335045 	swipl	0x00335045
    5034:	2e544e49 	cdpcs	14, 5, cr4, cr4, cr9, {2}
    5038:	00000a0d 	andeq	r0, r0, sp, lsl #20
    503c:	543a343c 	ldrplt	r3, [sl], -#1084
    5040:	005d4442 	subeqs	r4, sp, r2, asr #8
    5044:	5f345045 	swipl	0x00345045
    5048:	2e544e49 	cdpcs	14, 5, cr4, cr4, cr9, {2}
    504c:	00000a0d 	andeq	r0, r0, sp, lsl #20
    5050:	253a333c 	ldrcs	r3, [sl, -#828]!
    5054:	00005d78 	andeq	r5, r0, r8, ror sp
    5058:	5252453c 	subpls	r4, r2, #251658240	; 0xf000000
    505c:	003e524f 	eoreqs	r5, lr, pc, asr #4
    5060:	4154535b 	cmpmi	r4, fp, asr r3
    5064:	005d4c4c 	subeqs	r4, sp, ip, asr #24
    5068:	554f425b 	strplb	r4, [pc, #-603]	; 4e15 <__div0+0x455>
    506c:	64253a54 	strvst	r3, [r5], -#2644
    5070:	0000003a 	andeq	r0, r0, sl, lsr r0
    5074:	002c7825 	eoreq	r7, ip, r5, lsr #16
    5078:	0000005d 	andeq	r0, r0, sp, asr r0
    507c:	04090304 	streq	r0, [r9], -#772
    5080:	00530316 	subeqs	r0, r3, r6, lsl r3
    5084:	00730079 	rsbeqs	r0, r3, r9, ror r0
    5088:	00650074 	rsbeq	r0, r5, r4, ror r0
    508c:	0020006d 	eoreq	r0, r0, sp, rrx
    5090:	0043004d 	subeq	r0, r3, sp, asr #32
    5094:	032c0055 	teqeq	ip, #85	; 0x55
    5098:	00450053 	subeq	r0, r5, r3, asr r0
    509c:	00200043 	eoreq	r0, r0, r3, asr #32
    50a0:	00330053 	eoreqs	r0, r3, r3, asr r0
    50a4:	00320043 	eoreqs	r0, r2, r3, asr #32
    50a8:	00310034 	eoreqs	r0, r1, r4, lsr r0
    50ac:	00580030 	subeqs	r0, r8, r0, lsr r0
    50b0:	00540020 	subeqs	r0, r4, r0, lsr #32
    50b4:	00730065 	rsbeqs	r0, r3, r5, rrx
    50b8:	00200074 	eoreq	r0, r0, r4, ror r0
    50bc:	002f0042 	eoreq	r0, pc, r2, asr #32
    50c0:	00000044 	andeq	r0, r0, r4, asr #32
    50c4:	253a303c 	ldrcs	r3, [sl, -#60]!
    50c8:	00005d78 	andeq	r5, r0, r8, ror sp
    50cc:	5445535b 	strplb	r5, [r5], -#859
    50d0:	4e455055 	mcrmi	0, 2, r5, cr5, cr5, {2}
    50d4:	00005d44 	andeq	r5, r0, r4, asr #26
    50d8:	4154535b 	cmpmi	r4, fp, asr r3
    50dc:	005d4c4c 	subeqs	r4, sp, ip, asr #24
    50e0:	4444475b 	strmib	r4, [r4], -#1883
    50e4:	00005d30 	andeq	r5, r0, r0, lsr sp
    50e8:	4444475b 	strmib	r4, [r4], -#1883
    50ec:	00005d31 	andeq	r5, r0, r1, lsr sp
    50f0:	4444475b 	strmib	r4, [r4], -#1883
    50f4:	00005d32 	andeq	r5, r0, r2, lsr sp
    50f8:	4344475b 	cmpmi	r4, #23855104	; 0x16c0000
    50fc:	00005d30 	andeq	r5, r0, r0, lsr sp
    5100:	4344475b 	cmpmi	r4, #23855104	; 0x16c0000
    5104:	00005d31 	andeq	r5, r0, r1, lsr sp
    5108:	4344475b 	cmpmi	r4, #23855104	; 0x16c0000
    510c:	00005d32 	andeq	r5, r0, r2, lsr sp
    5110:	4344475b 	cmpmi	r4, #23855104	; 0x16c0000
    5114:	00005d33 	andeq	r5, r0, r3, lsr sp
    5118:	4344475b 	cmpmi	r4, #23855104	; 0x16c0000
    511c:	00005d34 	andeq	r5, r0, r4, lsr sp
    5120:	5344475b 	cmppl	r4, #23855104	; 0x16c0000
    5124:	5d305f30 	ldcpl	15, cr5, [r0, -#192]!
    5128:	00000000 	andeq	r0, r0, r0
    512c:	5344475b 	cmppl	r4, #23855104	; 0x16c0000
    5130:	64255f31 	strvst	r5, [r5], -#3889
    5134:	0000005d 	andeq	r0, r0, sp, asr r0
    5138:	5344475b 	cmppl	r4, #23855104	; 0x16c0000
    513c:	64255f32 	strvst	r5, [r5], -#3890
    5140:	0000005d 	andeq	r0, r0, sp, asr r0
    5144:	005d455b 	subeqs	r4, sp, fp, asr r5
    5148:	473a4555 	undefined
    514c:	0000443f 	andeq	r4, r0, pc, lsr r4
    5150:	4344475b 	cmpmi	r4, #23855104	; 0x16c0000
    5154:	005d304f 	subeqs	r3, sp, pc, asr #32
    5158:	4344475b 	cmpmi	r4, #23855104	; 0x16c0000
    515c:	005d314f 	subeqs	r3, sp, pc, asr #2
    5160:	4944475b 	stmmidb	r4, {r0, r1, r3, r4, r6, r8, r9, sl, lr}^
    5164:	00005d30 	andeq	r5, r0, r0, lsr sp
    5168:	4944475b 	stmmidb	r4, {r0, r1, r3, r4, r6, r8, r9, sl, lr}^
    516c:	00005d31 	andeq	r5, r0, r1, lsr sp
    5170:	4544475b 	strmib	r4, [r4, -#1883]
    5174:	005d3030 	subeqs	r3, sp, r0, lsr r0
    5178:	4544475b 	strmib	r4, [r4, -#1883]
    517c:	005d3031 	subeqs	r3, sp, r1, lsr r0
    5180:	4444475b 	strmib	r4, [r4], -#1883
    5184:	0000005d 	andeq	r0, r0, sp, asr r0
    5188:	3a45555b 	bcc	115a6fc <_stack+0x10da6fc>
    518c:	5d3f4447 	ldcpl	4, cr4, [pc, -#284]!
    5190:	00000000 	andeq	r0, r0, r0
    5194:	4344475b 	cmpmi	r4, #23855104	; 0x16c0000
    5198:	0000005d 	andeq	r0, r0, sp, asr r0
    519c:	5344475b 	cmppl	r4, #23855104	; 0x16c0000
    51a0:	0000005d 	andeq	r0, r0, sp, asr r0
    51a4:	3a45555b 	bcc	115a718 <_stack+0x10da718>
    51a8:	49525453 	ldmmidb	r2, {r0, r1, r4, r6, sl, ip, lr}^
    51ac:	00005d3f 	andeq	r5, r0, pc, lsr sp
    51b0:	4944475b 	stmmidb	r4, {r0, r1, r3, r4, r6, r8, r9, sl, lr}^
    51b4:	0000005d 	andeq	r0, r0, sp, asr r0
    51b8:	4544475b 	strmib	r4, [r4, -#1883]
    51bc:	0000005d 	andeq	r0, r0, sp, asr r0
    51c0:	3a45555b 	bcc	115a734 <_stack+0x10da734>
    51c4:	3f454447 	swicc	0x00454447
    51c8:	0000005d 	andeq	r0, r0, sp, asr r0
    51cc:	3a45555b 	bcc	115a740 <_stack+0x10da740>
    51d0:	55544553 	ldrplb	r4, [r4, -#1363]
    51d4:	78253d50 	stmvcda	r5!, {r4, r6, r8, sl, fp, ip, sp}
    51d8:	0000005d 	andeq	r0, r0, sp, asr r0
    51dc:	3a41535b 	bcc	1059f50 <_stack+0xfd9f50>
    51e0:	005d6425 	subeqs	r6, sp, r5, lsr #8
    51e4:	5d43535b 	stcpll	3, cr5, [r3, -#364]
    51e8:	00000000 	andeq	r0, r0, r0
    51ec:	5643525b 	undefined
    51f0:	0000003a 	andeq	r0, r0, sl, lsr r0
    51f4:	002c7825 	eoreq	r7, ip, r5, lsr #16
    51f8:	0000005d 	andeq	r0, r0, sp, asr r0

000051fc <pTOC>:
    51fc:	00000000 	andeq	r0, r0, r0
    5200:	5f717269 	swipl	0x00717269
    5204:	72746e65 	rsbvcs	r6, r4, #1616	; 0x650
    5208:	2e2b2b79 	mcrcs	11, 1, r2, cr11, cr9, {3}
    520c:	746e6928 	strvcbt	r6, [lr], -#2344
    5210:	25203d20 	strcs	r3, [r0, -#3360]!
    5214:	0a0d2964 	beq	34f7ac <_stack+0x2cf7ac>
    5218:	00000000 	andeq	r0, r0, r0
    521c:	32616d64 	rsbcc	r6, r1, #6400	; 0x1900
    5220:	746e6920 	strvcbt	r6, [lr], -#2336
    5224:	000a0d2e 	andeq	r0, sl, lr, lsr #26
    5228:	20746477 	rsbcss	r6, r4, r7, ror r4
    522c:	2e746e69 	cdpcs	14, 7, cr6, cr4, cr9, {3}
    5230:	00000a0d 	andeq	r0, r0, sp, lsl #20
    5234:	72724521 	rsbvcs	r4, r2, #138412032	; 0x8400000
    5238:	7020726f 	eorvc	r7, r0, pc, ror #4
    523c:	69646e65 	stmvsdb	r4!, {r0, r2, r5, r6, r9, sl, fp, sp, lr}^
    5240:	6920676e 	stmvsdb	r0!, {r1, r2, r3, r5, r6, r8, r9, sl, sp, lr}
    5244:	722c746e 	eorvc	r7, ip, #1845493760	; 0x6e000000
    5248:	283d6765 	ldmcsda	sp!, {r0, r2, r5, r6, r8, r9, sl, sp, lr}
    524c:	2e296425 	cdpcs	4, 2, cr6, cr9, cr5, {1}
    5250:	00000a0d 	andeq	r0, r0, sp, lsl #20
    5254:	64627375 	strvsbt	r7, [r2], -#885
    5258:	746e6920 	strvcbt	r6, [lr], -#2336
    525c:	000a0d2e 	andeq	r0, sl, lr, lsr #26
    5260:	726f6261 	rsbvc	r6, pc, #268435462	; 0x10000006
    5264:	6e692074 	mcrvs	0, 3, r2, cr9, cr4, {3}
    5268:	6f6e5f74 	swivs	0x006e5f74
    526c:	29642528 	stmcsdb	r4!, {r3, r5, r8, sl, sp}^
    5270:	7370632c 	cmnvc	r0, #-1342177280	; 0xb0000000
    5274:	78302872 	ldmvcda	r0!, {r1, r4, r5, r6, fp, sp}
    5278:	2e297825 	cdpcs	8, 2, cr7, cr9, cr5, {1}
    527c:	00000a0d 	andeq	r0, r0, sp, lsl #20
    5280:	00000030 	andeq	r0, r0, r0, lsr r0
    5284:	33323130 	teqcc	r2, #12	; 0xc
    5288:	37363534 	undefined
    528c:	62613938 	rsbvs	r3, r1, #917504	; 0xe0000
    5290:	66656463 	strvsbt	r6, [r5], -r3, ror #8
    5294:	00000000 	andeq	r0, r0, r0
    5298:	33323130 	teqcc	r2, #12	; 0xc
    529c:	37363534 	undefined
    52a0:	42413938 	submi	r3, r1, #917504	; 0xe0000
    52a4:	46454443 	strmib	r4, [r5], -r3, asr #8
	...
    52b0:	20202020 	eorcs	r2, r0, r0, lsr #32
    52b4:	20202020 	eorcs	r2, r0, r0, lsr #32
    52b8:	22222220 	eorcs	r2, r2, #2	; 0x2
    52bc:	20202222 	eorcs	r2, r0, r2, lsr #4
    52c0:	20202020 	eorcs	r2, r0, r0, lsr #32
    52c4:	20202020 	eorcs	r2, r0, r0, lsr #32
    52c8:	20202020 	eorcs	r2, r0, r0, lsr #32
    52cc:	20202020 	eorcs	r2, r0, r0, lsr #32
    52d0:	80808042 	addhi	r8, r0, r2, asr #32
    52d4:	80808080 	addhi	r8, r0, r0, lsl #1
    52d8:	80808080 	addhi	r8, r0, r0, lsl #1
    52dc:	80808080 	addhi	r8, r0, r0, lsl #1
    52e0:	11111111 	tstne	r1, r1, lsl r1
    52e4:	11111111 	tstne	r1, r1, lsl r1
    52e8:	80801111 	addhi	r1, r0, r1, lsl r1
    52ec:	80808080 	addhi	r8, r0, r0, lsl #1
    52f0:	14141480 	ldrne	r1, [r4], -#1152
    52f4:	04141414 	ldreq	r1, [r4], -#1044
    52f8:	04040404 	streq	r0, [r4], -#1028
    52fc:	04040404 	streq	r0, [r4], -#1028
    5300:	04040404 	streq	r0, [r4], -#1028
    5304:	04040404 	streq	r0, [r4], -#1028
    5308:	80040404 	andhi	r0, r4, r4, lsl #8
    530c:	80808080 	addhi	r8, r0, r0, lsl #1
    5310:	18181880 	ldmneda	r8, {r7, fp, ip}
    5314:	08181818 	ldmeqda	r8, {r3, r4, fp, ip}
    5318:	08080808 	stmeqda	r8, {r3, fp}
    531c:	08080808 	stmeqda	r8, {r3, fp}
    5320:	08080808 	stmeqda	r8, {r3, fp}
    5324:	08080808 	stmeqda	r8, {r3, fp}
    5328:	80080808 	andhi	r0, r8, r8, lsl #16
    532c:	20808080 	addcs	r8, r0, r0, lsl #1
	...
Disassembly of section .data:

32000000 <_endkdata>:
32000000:	00000190 	muleq	r0, r0, r1
32000004:	00000000 	andeq	r0, r0, r0

32000008 <restart>:
32000008:	00000000 	andeq	r0, r0, r0

3200000c <err>:
3200000c:	00000000 	andeq	r0, r0, r0

32000010 <download_run>:
32000010:	00000000 	andeq	r0, r0, r0

32000014 <menuUsed>:
32000014:	00000000 	andeq	r0, r0, r0

32000018 <pMagicNum>:
32000018:	32000058 	andcc	r0, r0, #88	; 0x58

3200001c <transferIndex>:
3200001c:	00000000 	andeq	r0, r0, r0

32000020 <dbgStrRdPt>:
32000020:	00000000 	andeq	r0, r0, r0

32000024 <dbgStrWrPt>:
32000024:	00000000 	andeq	r0, r0, r0

32000028 <Configuration>:
32000028:	00000101 	andeq	r0, r0, r1, lsl #2

32000029 <Selfpwr>:
32000029:	01000001 	tsteq	r0, r1
3200002d:	00000000 	andeq	r0, r0, r0

32000030 <errno>:
32000030:	00000000 	andeq	r0, r0, r0
